
MouseForHandicapped.elf:     file format elf32-avr

Sections:
Idx Name          Size      VMA       LMA       File off  Algn
  0 .text         00001948  00000000  00000000  00000094  2**1
                  CONTENTS, ALLOC, LOAD, READONLY, CODE
  1 .data         0000000a  00800060  00001948  000019dc  2**0
                  CONTENTS, ALLOC, LOAD, DATA
  2 .bss          0000004a  0080006a  0080006a  000019e6  2**0
                  ALLOC
  3 .comment      00000030  00000000  00000000  000019e6  2**0
                  CONTENTS, READONLY
  4 .note.gnu.avr.deviceinfo 0000003c  00000000  00000000  00001a18  2**2
                  CONTENTS, READONLY
  5 .debug_aranges 00000350  00000000  00000000  00001a58  2**3
                  CONTENTS, READONLY, DEBUGGING
  6 .debug_info   000038aa  00000000  00000000  00001da8  2**0
                  CONTENTS, READONLY, DEBUGGING
  7 .debug_abbrev 00001397  00000000  00000000  00005652  2**0
                  CONTENTS, READONLY, DEBUGGING
  8 .debug_line   00002456  00000000  00000000  000069e9  2**0
                  CONTENTS, READONLY, DEBUGGING
  9 .debug_frame  00000780  00000000  00000000  00008e40  2**2
                  CONTENTS, READONLY, DEBUGGING
 10 .debug_str    000012aa  00000000  00000000  000095c0  2**0
                  CONTENTS, READONLY, DEBUGGING
 11 .debug_loc    0000207b  00000000  00000000  0000a86a  2**0
                  CONTENTS, READONLY, DEBUGGING
 12 .debug_ranges 000002f8  00000000  00000000  0000c8e5  2**0
                  CONTENTS, READONLY, DEBUGGING

Disassembly of section .text:

00000000 <__vectors>:
       0:	0c 94 b7 00 	jmp	0x16e	; 0x16e <__ctors_end>
       4:	0c 94 ef 00 	jmp	0x1de	; 0x1de <__vector_1>
       8:	0c 94 d4 00 	jmp	0x1a8	; 0x1a8 <__bad_interrupt>
       c:	0c 94 d4 00 	jmp	0x1a8	; 0x1a8 <__bad_interrupt>
      10:	0c 94 d4 00 	jmp	0x1a8	; 0x1a8 <__bad_interrupt>
      14:	0c 94 d4 00 	jmp	0x1a8	; 0x1a8 <__bad_interrupt>
      18:	0c 94 d4 00 	jmp	0x1a8	; 0x1a8 <__bad_interrupt>
      1c:	0c 94 d4 00 	jmp	0x1a8	; 0x1a8 <__bad_interrupt>
      20:	0c 94 d4 00 	jmp	0x1a8	; 0x1a8 <__bad_interrupt>
      24:	0c 94 d4 00 	jmp	0x1a8	; 0x1a8 <__bad_interrupt>
      28:	0c 94 d4 00 	jmp	0x1a8	; 0x1a8 <__bad_interrupt>
      2c:	0c 94 d4 00 	jmp	0x1a8	; 0x1a8 <__bad_interrupt>
      30:	0c 94 d4 00 	jmp	0x1a8	; 0x1a8 <__bad_interrupt>
      34:	0c 94 d4 00 	jmp	0x1a8	; 0x1a8 <__bad_interrupt>
      38:	0c 94 d4 00 	jmp	0x1a8	; 0x1a8 <__bad_interrupt>
      3c:	0c 94 d4 00 	jmp	0x1a8	; 0x1a8 <__bad_interrupt>
      40:	0c 94 d4 00 	jmp	0x1a8	; 0x1a8 <__bad_interrupt>
      44:	0c 94 d4 00 	jmp	0x1a8	; 0x1a8 <__bad_interrupt>
      48:	0c 94 d4 00 	jmp	0x1a8	; 0x1a8 <__bad_interrupt>
      4c:	0c 94 d4 00 	jmp	0x1a8	; 0x1a8 <__bad_interrupt>
      50:	0c 94 d4 00 	jmp	0x1a8	; 0x1a8 <__bad_interrupt>
      54:	4f 02       	muls	r20, r31
      56:	52 02       	muls	r21, r18
      58:	49 02       	muls	r20, r25
      5a:	4c 02       	muls	r20, r28
      5c:	55 02       	muls	r21, r21
      5e:	58 02       	muls	r21, r24
      60:	5b 02       	muls	r21, r27
      62:	07 63       	ori	r16, 0x37	; 55
      64:	42 36       	cpi	r20, 0x62	; 98
      66:	b7 9b       	sbis	0x16, 7	; 22
      68:	d8 a7       	std	Y+40, r29	; 0x28
      6a:	1a 39       	cpi	r17, 0x9A	; 154
      6c:	68 56       	subi	r22, 0x68	; 104
      6e:	18 ae       	std	Y+56, r1	; 0x38
      70:	ba ab       	std	Y+50, r27	; 0x32
      72:	55 8c       	ldd	r5, Z+29	; 0x1d
      74:	1d 3c       	cpi	r17, 0xCD	; 205
      76:	b7 cc       	rjmp	.-1682   	; 0xfffff9e6 <__eeprom_end+0xff7ef9e6>
      78:	57 63       	ori	r21, 0x37	; 55
      7a:	bd 6d       	ori	r27, 0xDD	; 221
      7c:	ed fd       	.word	0xfded	; ????
      7e:	75 3e       	cpi	r23, 0xE5	; 229
      80:	f6 17       	cp	r31, r22
      82:	72 31       	cpi	r23, 0x12	; 18
      84:	bf 00       	.word	0x00bf	; ????
      86:	00 00       	nop
      88:	80 3f       	cpi	r24, 0xF0	; 240
      8a:	08 00       	.word	0x0008	; ????
      8c:	00 00       	nop
      8e:	be 92       	st	-X, r11
      90:	24 49       	sbci	r18, 0x94	; 148
      92:	12 3e       	cpi	r17, 0xE2	; 226
      94:	ab aa       	std	Y+51, r10	; 0x33
      96:	aa 2a       	or	r10, r26
      98:	be cd       	rjmp	.-1156   	; 0xfffffc16 <__eeprom_end+0xff7efc16>
      9a:	cc cc       	rjmp	.-1640   	; 0xfffffa34 <__eeprom_end+0xff7efa34>
      9c:	4c 3e       	cpi	r20, 0xEC	; 236
      9e:	00 00       	nop
      a0:	00 80       	ld	r0, Z
      a2:	be ab       	std	Y+54, r27	; 0x36
      a4:	aa aa       	std	Y+50, r10	; 0x32
      a6:	aa 3e       	cpi	r26, 0xEA	; 234
      a8:	00 00       	nop
      aa:	00 00       	nop
      ac:	bf 00       	.word	0x00bf	; ????
      ae:	00 00       	nop
      b0:	80 3f       	cpi	r24, 0xF0	; 240
      b2:	00 00       	nop
      b4:	00 00       	nop
      b6:	00 08       	sbc	r0, r0
      b8:	41 78       	andi	r20, 0x81	; 129
      ba:	d3 bb       	out	0x13, r29	; 19
      bc:	43 87       	std	Z+11, r20	; 0x0b
      be:	d1 13       	cpse	r29, r17
      c0:	3d 19       	sub	r19, r13
      c2:	0e 3c       	cpi	r16, 0xCE	; 206
      c4:	c3 bd       	out	0x23, r28	; 35
      c6:	42 82       	std	Z+2, r4	; 0x02
      c8:	ad 2b       	or	r26, r29
      ca:	3e 68       	ori	r19, 0x8E	; 142
      cc:	ec 82       	std	Y+4, r14	; 0x04
      ce:	76 be       	out	0x36, r7	; 54
      d0:	d9 8f       	std	Y+25, r29	; 0x19
      d2:	e1 a9       	ldd	r30, Z+49	; 0x31
      d4:	3e 4c       	sbci	r19, 0xCE	; 206
      d6:	80 ef       	ldi	r24, 0xF0	; 240
      d8:	ff be       	out	0x3f, r15	; 63
      da:	01 c4       	rjmp	.+2050   	; 0x8de <BNO055_Init+0x74>
      dc:	ff 7f       	andi	r31, 0xFF	; 255
      de:	3f 00       	.word	0x003f	; ????
      e0:	00 00       	nop
	...

000000e4 <__trampolines_end>:
      e4:	05 01       	movw	r0, r10
      e6:	09 02       	muls	r16, r25
      e8:	a1 01       	movw	r20, r2
      ea:	09 01       	movw	r0, r18
      ec:	a1 00       	.word	0x00a1	; ????
      ee:	05 09       	sbc	r16, r5
      f0:	19 01       	movw	r2, r18
      f2:	29 03       	fmul	r18, r17
      f4:	15 00       	.word	0x0015	; ????
      f6:	25 01       	movw	r4, r10
      f8:	95 03       	fmuls	r17, r21
      fa:	75 01       	movw	r14, r10
      fc:	81 02       	muls	r24, r17
      fe:	95 01       	movw	r18, r10
     100:	75 05       	cpc	r23, r5
     102:	81 03       	fmuls	r16, r17
     104:	05 01       	movw	r0, r10
     106:	09 30       	cpi	r16, 0x09	; 9
     108:	09 31       	cpi	r16, 0x19	; 25
     10a:	09 38       	cpi	r16, 0x89	; 137
     10c:	15 81       	ldd	r17, Z+5	; 0x05
     10e:	25 7f       	andi	r18, 0xF5	; 245
     110:	75 08       	sbc	r7, r5
     112:	95 03       	fmuls	r17, r21
     114:	81 06       	cpc	r8, r17
     116:	c0 c0       	rjmp	.+384    	; 0x298 <rxbit2+0x2>

00000118 <usbDescriptorConfiguration>:
     118:	09 02 22 00 01 01 00 80 0a 09 04 00 00 01 03 00     ..".............
     128:	00 00 09 21 01 01 00 01 22 34 00 07 05 81 03 08     ...!...."4......
     138:	00 64                                               .d

0000013a <usbDescriptorDevice>:
     13a:	12 01 10 01 00 00 00 08 c0 16 e8 03 00 01 01 02     ................
     14a:	00 01                                               ..

0000014c <usbDescriptorStringDevice>:
     14c:	0c 03 4d 00 6f 00 75 00 73 00 65 00                 ..M.o.u.s.e.

00000158 <usbDescriptorStringVendor>:
     158:	12 03 6f 00 62 00 64 00 65 00 76 00 2e 00 61 00     ..o.b.d.e.v...a.
     168:	74 00                                               t.

0000016a <usbDescriptorString0>:
     16a:	04 03 09 04                                         ....

0000016e <__ctors_end>:
     16e:	11 24       	eor	r1, r1
     170:	1f be       	out	0x3f, r1	; 63
     172:	cf e5       	ldi	r28, 0x5F	; 95
     174:	d8 e0       	ldi	r29, 0x08	; 8
     176:	de bf       	out	0x3e, r29	; 62
     178:	cd bf       	out	0x3d, r28	; 61

0000017a <__do_copy_data>:
     17a:	10 e0       	ldi	r17, 0x00	; 0
     17c:	a0 e6       	ldi	r26, 0x60	; 96
     17e:	b0 e0       	ldi	r27, 0x00	; 0
     180:	e8 e4       	ldi	r30, 0x48	; 72
     182:	f9 e1       	ldi	r31, 0x19	; 25
     184:	02 c0       	rjmp	.+4      	; 0x18a <__do_copy_data+0x10>
     186:	05 90       	lpm	r0, Z+
     188:	0d 92       	st	X+, r0
     18a:	aa 36       	cpi	r26, 0x6A	; 106
     18c:	b1 07       	cpc	r27, r17
     18e:	d9 f7       	brne	.-10     	; 0x186 <__do_copy_data+0xc>

00000190 <__do_clear_bss>:
     190:	20 e0       	ldi	r18, 0x00	; 0
     192:	aa e6       	ldi	r26, 0x6A	; 106
     194:	b0 e0       	ldi	r27, 0x00	; 0
     196:	01 c0       	rjmp	.+2      	; 0x19a <.do_clear_bss_start>

00000198 <.do_clear_bss_loop>:
     198:	1d 92       	st	X+, r1

0000019a <.do_clear_bss_start>:
     19a:	a4 3b       	cpi	r26, 0xB4	; 180
     19c:	b2 07       	cpc	r27, r18
     19e:	e1 f7       	brne	.-8      	; 0x198 <.do_clear_bss_loop>
     1a0:	0e 94 6d 05 	call	0xada	; 0xada <main>
     1a4:	0c 94 a2 0c 	jmp	0x1944	; 0x1944 <_exit>

000001a8 <__bad_interrupt>:
     1a8:	0c 94 00 00 	jmp	0	; 0x0 <__vectors>

000001ac <usbCrc16>:
;   poly    r20+r21
;   scratch r23
;   resCrc  r24+r25 / r16+r17
;   ptr     X / Z
usbCrc16:
    mov     ptrL, argPtrL
     1ac:	a8 2f       	mov	r26, r24
    mov     ptrH, argPtrH
     1ae:	b9 2f       	mov	r27, r25
    ldi     resCrcL, 0
     1b0:	80 e0       	ldi	r24, 0x00	; 0
    ldi     resCrcH, 0
     1b2:	90 e0       	ldi	r25, 0x00	; 0
    ldi     polyL, lo8(0xa001)
     1b4:	41 e0       	ldi	r20, 0x01	; 1
    ldi     polyH, hi8(0xa001)
     1b6:	50 ea       	ldi	r21, 0xA0	; 160
    com     argLen      ; argLen = -argLen - 1: modified loop to ensure that carry is set
     1b8:	60 95       	com	r22
    ldi     bitCnt, 0   ; loop counter with starnd condition = end condition
     1ba:	30 e0       	ldi	r19, 0x00	; 0
    rjmp    usbCrcLoopEntry
     1bc:	09 c0       	rjmp	.+18     	; 0x1d0 <usbCrcLoopEntry>

000001be <usbCrcByteLoop>:
usbCrcByteLoop:
    ld      byte, ptr+
     1be:	2d 91       	ld	r18, X+
    eor     resCrcL, byte
     1c0:	82 27       	eor	r24, r18

000001c2 <usbCrcBitLoop>:
usbCrcBitLoop:
    ror     resCrcH     ; carry is always set here (see brcs jumps to here)
     1c2:	97 95       	ror	r25
    ror     resCrcL
     1c4:	87 95       	ror	r24
    brcs    usbCrcNoXor
     1c6:	10 f0       	brcs	.+4      	; 0x1cc <usbCrcNoXor>
    eor     resCrcL, polyL
     1c8:	84 27       	eor	r24, r20
    eor     resCrcH, polyH
     1ca:	95 27       	eor	r25, r21

000001cc <usbCrcNoXor>:
usbCrcNoXor:
    subi    bitCnt, 224 ; (8 * 224) % 256 = 0; this loop iterates 8 times
     1cc:	30 5e       	subi	r19, 0xE0	; 224
    brcs    usbCrcBitLoop
     1ce:	c8 f3       	brcs	.-14     	; 0x1c2 <usbCrcBitLoop>

000001d0 <usbCrcLoopEntry>:
usbCrcLoopEntry:
    subi    argLen, -1
     1d0:	6f 5f       	subi	r22, 0xFF	; 255
    brcs    usbCrcByteLoop
     1d2:	a8 f3       	brcs	.-22     	; 0x1be <usbCrcByteLoop>

000001d4 <usbCrcReady>:
usbCrcReady:
    ret
     1d4:	08 95       	ret

000001d6 <usbCrc16Append>:

#endif /* USB_USE_FAST_CRC */

; extern unsigned usbCrc16Append(unsigned char *data, unsigned char len);
usbCrc16Append:
    rcall   usbCrc16
     1d6:	ea df       	rcall	.-44     	; 0x1ac <usbCrc16>
    st      ptr+, resCrcL
     1d8:	8d 93       	st	X+, r24
    st      ptr+, resCrcH
     1da:	9d 93       	st	X+, r25
    ret
     1dc:	08 95       	ret

000001de <__vector_1>:
;max allowable interrupt latency: 34 cycles -> max 25 cycles interrupt disable
;max stack usage: [ret(2), YL, SREG, YH, shift, x1, x2, x3, cnt, x4] = 11 bytes
;Numbers in brackets are maximum cycles since SOF.
USB_INTR_VECTOR:
;order of registers pushed: YL, SREG [sofError], YH, shift, x1, x2, x3, cnt
    push    YL              ;2 [35] push only what is necessary to sync with edge ASAP
     1de:	cf 93       	push	r28
    in      YL, SREG        ;1 [37]
     1e0:	cf b7       	in	r28, 0x3f	; 63
    push    YL              ;2 [39]
     1e2:	cf 93       	push	r28

000001e4 <waitForJ>:
;sync up with J to K edge during sync pattern -- use fastest possible loops
;The first part waits at most 1 bit long since we must be in sync pattern.
;YL is guarenteed to be < 0x80 because I flag is clear. When we jump to
;waitForJ, ensure that this prerequisite is met.
waitForJ:
    inc     YL
     1e4:	c3 95       	inc	r28
    sbis    USBIN, USBMINUS
     1e6:	84 9b       	sbis	0x10, 4	; 16
    brne    waitForJ        ; just make sure we have ANY timeout
     1e8:	e9 f7       	brne	.-6      	; 0x1e4 <waitForJ>

000001ea <waitForK>:
waitForK:
;The following code results in a sampling window of 1/4 bit which meets the spec.
    sbis    USBIN, USBMINUS
     1ea:	84 9b       	sbis	0x10, 4	; 16
    rjmp    foundK
     1ec:	09 c0       	rjmp	.+18     	; 0x200 <foundK>
    sbis    USBIN, USBMINUS
     1ee:	84 9b       	sbis	0x10, 4	; 16
    rjmp    foundK
     1f0:	07 c0       	rjmp	.+14     	; 0x200 <foundK>
    sbis    USBIN, USBMINUS
     1f2:	84 9b       	sbis	0x10, 4	; 16
    rjmp    foundK
     1f4:	05 c0       	rjmp	.+10     	; 0x200 <foundK>
    sbis    USBIN, USBMINUS
     1f6:	84 9b       	sbis	0x10, 4	; 16
    rjmp    foundK
     1f8:	03 c0       	rjmp	.+6      	; 0x200 <foundK>
    sbis    USBIN, USBMINUS
     1fa:	84 9b       	sbis	0x10, 4	; 16
    rjmp    foundK
     1fc:	01 c0       	rjmp	.+2      	; 0x200 <foundK>
    sts     usbSofCount, YL
#endif  /* USB_COUNT_SOF */
#ifdef USB_SOF_HOOK
    USB_SOF_HOOK
#endif
    rjmp    sofError
     1fe:	a3 c0       	rjmp	.+326    	; 0x346 <sofError>

00000200 <foundK>:
foundK:
;{3, 5} after falling D- edge, average delay: 4 cycles [we want 4 for center sampling]
;we have 1 bit time for setup purposes, then sample again. Numbers in brackets
;are cycles from center of first sync (double K) bit after the instruction
    push    YH                  ;2 [2]
     200:	df 93       	push	r29
    lds     YL, usbInputBufOffset;2 [4]
     202:	c0 91 97 00 	lds	r28, 0x0097	; 0x800097 <usbInputBufOffset>
    clr     YH                  ;1 [5]
     206:	dd 27       	eor	r29, r29
    subi    YL, lo8(-(usbRxBuf));1 [6]
     208:	c2 56       	subi	r28, 0x62	; 98
    sbci    YH, hi8(-(usbRxBuf));1 [7]
     20a:	df 4f       	sbci	r29, 0xFF	; 255

    sbis    USBIN, USBMINUS ;1 [8] we want two bits K [sample 1 cycle too early]
     20c:	84 9b       	sbis	0x10, 4	; 16
    rjmp    haveTwoBitsK    ;2 [10]
     20e:	02 c0       	rjmp	.+4      	; 0x214 <haveTwoBitsK>
    pop     YH              ;2 [11] undo the push from before
     210:	df 91       	pop	r29
    rjmp    waitForK        ;2 [13] this was not the end of sync, retry
     212:	eb cf       	rjmp	.-42     	; 0x1ea <waitForK>

00000214 <haveTwoBitsK>:
haveTwoBitsK:
;----------------------------------------------------------------------------
; push more registers and initialize values while we sample the first bits:
;----------------------------------------------------------------------------
    push    shift           ;2 [16]
     214:	2f 93       	push	r18
    push    x1              ;2 [12]
     216:	0f 93       	push	r16
    push    x2              ;2 [14]
     218:	1f 93       	push	r17

    in      x1, USBIN       ;1 [17] <-- sample bit 0
     21a:	00 b3       	in	r16, 0x10	; 16
    ldi     shift, 0xff     ;1 [18]
     21c:	2f ef       	ldi	r18, 0xFF	; 255
    bst     x1, USBMINUS    ;1 [19]
     21e:	04 fb       	bst	r16, 4
    bld     shift, 0        ;1 [20]
     220:	20 f9       	bld	r18, 0
    push    x3              ;2 [22]
     222:	4f 93       	push	r20
    push    cnt             ;2 [24]
     224:	3f 93       	push	r19
    
    in      x2, USBIN       ;1 [25] <-- sample bit 1
     226:	10 b3       	in	r17, 0x10	; 16
    ser     x3              ;1 [26] [inserted init instruction]
     228:	4f ef       	ldi	r20, 0xFF	; 255
    eor     x1, x2          ;1 [27]
     22a:	01 27       	eor	r16, r17
    bst     x1, USBMINUS    ;1 [28]
     22c:	04 fb       	bst	r16, 4
    bld     shift, 1        ;1 [29]
     22e:	21 f9       	bld	r18, 1
    ldi     cnt, USB_BUFSIZE;1 [30] [inserted init instruction]
     230:	3b e0       	ldi	r19, 0x0B	; 11
    rjmp    rxbit2          ;2 [32]
     232:	31 c0       	rjmp	.+98     	; 0x296 <rxbit2>

00000234 <unstuff0>:
;----------------------------------------------------------------------------
; Receiver loop (numbers in brackets are cycles within byte after instr)
;----------------------------------------------------------------------------

unstuff0:               ;1 (branch taken)
    andi    x3, ~0x01   ;1 [15]
     234:	4e 7f       	andi	r20, 0xFE	; 254
    mov     x1, x2      ;1 [16] x2 contains last sampled (stuffed) bit
     236:	01 2f       	mov	r16, r17
    in      x2, USBIN   ;1 [17] <-- sample bit 1 again
     238:	10 b3       	in	r17, 0x10	; 16
    ori     shift, 0x01 ;1 [18]
     23a:	21 60       	ori	r18, 0x01	; 1
    rjmp    didUnstuff0 ;2 [20]
     23c:	28 c0       	rjmp	.+80     	; 0x28e <didUnstuff0>

0000023e <unstuff1>:

unstuff1:               ;1 (branch taken)
    mov     x2, x1      ;1 [21] x1 contains last sampled (stuffed) bit
     23e:	10 2f       	mov	r17, r16
    andi    x3, ~0x02   ;1 [22]
     240:	4d 7f       	andi	r20, 0xFD	; 253
    ori     shift, 0x02 ;1 [23]
     242:	22 60       	ori	r18, 0x02	; 2
    nop                 ;1 [24]
     244:	00 00       	nop
    in      x1, USBIN   ;1 [25] <-- sample bit 2 again
     246:	00 b3       	in	r16, 0x10	; 16
    rjmp    didUnstuff1 ;2 [27]
     248:	29 c0       	rjmp	.+82     	; 0x29c <didUnstuff1>

0000024a <unstuff2>:

unstuff2:               ;1 (branch taken)
    andi    x3, ~0x04   ;1 [29]
     24a:	4b 7f       	andi	r20, 0xFB	; 251
    ori     shift, 0x04 ;1 [30]
     24c:	24 60       	ori	r18, 0x04	; 4
    mov     x1, x2      ;1 [31] x2 contains last sampled (stuffed) bit
     24e:	01 2f       	mov	r16, r17
    nop                 ;1 [32]
     250:	00 00       	nop
    in      x2, USBIN   ;1 [33] <-- sample bit 3
     252:	10 b3       	in	r17, 0x10	; 16
    rjmp    didUnstuff2 ;2 [35]
     254:	2b c0       	rjmp	.+86     	; 0x2ac <didUnstuff2>

00000256 <unstuff3>:

unstuff3:               ;1 (branch taken)
    in      x2, USBIN   ;1 [34] <-- sample stuffed bit 3 [one cycle too late]
     256:	10 b3       	in	r17, 0x10	; 16
    andi    x3, ~0x08   ;1 [35]
     258:	47 7f       	andi	r20, 0xF7	; 247
    ori     shift, 0x08 ;1 [36]
     25a:	28 60       	ori	r18, 0x08	; 8
    rjmp    didUnstuff3 ;2 [38]
     25c:	2a c0       	rjmp	.+84     	; 0x2b2 <didUnstuff3>

0000025e <unstuff4>:

unstuff4:               ;1 (branch taken)
    andi    x3, ~0x10   ;1 [40]
     25e:	4f 7e       	andi	r20, 0xEF	; 239
    in      x1, USBIN   ;1 [41] <-- sample stuffed bit 4
     260:	00 b3       	in	r16, 0x10	; 16
    ori     shift, 0x10 ;1 [42]
     262:	20 61       	ori	r18, 0x10	; 16
    rjmp    didUnstuff4 ;2 [44]
     264:	2c c0       	rjmp	.+88     	; 0x2be <didUnstuff4>

00000266 <unstuff5>:

unstuff5:               ;1 (branch taken)
    andi    x3, ~0x20   ;1 [48]
     266:	4f 7d       	andi	r20, 0xDF	; 223
    in      x2, USBIN   ;1 [49] <-- sample stuffed bit 5
     268:	10 b3       	in	r17, 0x10	; 16
    ori     shift, 0x20 ;1 [50]
     26a:	20 62       	ori	r18, 0x20	; 32
    rjmp    didUnstuff5 ;2 [52]
     26c:	2f c0       	rjmp	.+94     	; 0x2cc <didUnstuff5>

0000026e <unstuff6>:

unstuff6:               ;1 (branch taken)
    andi    x3, ~0x40   ;1 [56]
     26e:	4f 7b       	andi	r20, 0xBF	; 191
    in      x1, USBIN   ;1 [57] <-- sample stuffed bit 6
     270:	00 b3       	in	r16, 0x10	; 16
    ori     shift, 0x40 ;1 [58]
     272:	20 64       	ori	r18, 0x40	; 64
    rjmp    didUnstuff6 ;2 [60]
     274:	32 c0       	rjmp	.+100    	; 0x2da <didUnstuff6>

00000276 <rxLoop>:
; bit 4:    none
; bit 5:    none
; bit 6:    none
; bit 7:    jump, eor
rxLoop:
    eor     x3, shift   ;1 [0] reconstruct: x3 is 0 at bit locations we changed, 1 at others
     276:	42 27       	eor	r20, r18
    in      x1, USBIN   ;1 [1] <-- sample bit 0
     278:	00 b3       	in	r16, 0x10	; 16
    st      y+, x3      ;2 [3] store data
     27a:	49 93       	st	Y+, r20
    ser     x3          ;1 [4]
     27c:	4f ef       	ldi	r20, 0xFF	; 255
    nop                 ;1 [5]
     27e:	00 00       	nop
    eor     x2, x1      ;1 [6]
     280:	10 27       	eor	r17, r16
    bst     x2, USBMINUS;1 [7]
     282:	14 fb       	bst	r17, 4
    bld     shift, 0    ;1 [8]
     284:	20 f9       	bld	r18, 0
    in      x2, USBIN   ;1 [9] <-- sample bit 1 (or possibly bit 0 stuffed)
     286:	10 b3       	in	r17, 0x10	; 16
    andi    x2, USBMASK ;1 [10]
     288:	14 71       	andi	r17, 0x14	; 20
    breq    se0         ;1 [11] SE0 check for bit 1
     28a:	c9 f1       	breq	.+114    	; 0x2fe <se0>
    andi    shift, 0xf9 ;1 [12]
     28c:	29 7f       	andi	r18, 0xF9	; 249

0000028e <didUnstuff0>:
didUnstuff0:
    breq    unstuff0    ;1 [13]
     28e:	91 f2       	breq	.-92     	; 0x234 <unstuff0>
    eor     x1, x2      ;1 [14]
     290:	01 27       	eor	r16, r17
    bst     x1, USBMINUS;1 [15]
     292:	04 fb       	bst	r16, 4
    bld     shift, 1    ;1 [16]
     294:	21 f9       	bld	r18, 1

00000296 <rxbit2>:
rxbit2:
    in      x1, USBIN   ;1 [17] <-- sample bit 2 (or possibly bit 1 stuffed)
     296:	00 b3       	in	r16, 0x10	; 16
    andi    shift, 0xf3 ;1 [18]
     298:	23 7f       	andi	r18, 0xF3	; 243
    breq    unstuff1    ;1 [19] do remaining work for bit 1
     29a:	89 f2       	breq	.-94     	; 0x23e <unstuff1>

0000029c <didUnstuff1>:
didUnstuff1:
    subi    cnt, 1      ;1 [20]
     29c:	31 50       	subi	r19, 0x01	; 1
    brcs    overflow    ;1 [21] loop control
     29e:	58 f1       	brcs	.+86     	; 0x2f6 <overflow>
    eor     x2, x1      ;1 [22]
     2a0:	10 27       	eor	r17, r16
    bst     x2, USBMINUS;1 [23]
     2a2:	14 fb       	bst	r17, 4
    bld     shift, 2    ;1 [24]
     2a4:	22 f9       	bld	r18, 2
    in      x2, USBIN   ;1 [25] <-- sample bit 3 (or possibly bit 2 stuffed)
     2a6:	10 b3       	in	r17, 0x10	; 16
    andi    shift, 0xe7 ;1 [26]
     2a8:	27 7e       	andi	r18, 0xE7	; 231
    breq    unstuff2    ;1 [27]
     2aa:	79 f2       	breq	.-98     	; 0x24a <unstuff2>

000002ac <didUnstuff2>:
didUnstuff2:
    eor     x1, x2      ;1 [28]
     2ac:	01 27       	eor	r16, r17
    bst     x1, USBMINUS;1 [29]
     2ae:	04 fb       	bst	r16, 4
    bld     shift, 3    ;1 [30]
     2b0:	23 f9       	bld	r18, 3

000002b2 <didUnstuff3>:
didUnstuff3:
    andi    shift, 0xcf ;1 [31]
     2b2:	2f 7c       	andi	r18, 0xCF	; 207
    breq    unstuff3    ;1 [32]
     2b4:	81 f2       	breq	.-96     	; 0x256 <unstuff3>
    in      x1, USBIN   ;1 [33] <-- sample bit 4
     2b6:	00 b3       	in	r16, 0x10	; 16
    eor     x2, x1      ;1 [34]
     2b8:	10 27       	eor	r17, r16
    bst     x2, USBMINUS;1 [35]
     2ba:	14 fb       	bst	r17, 4
    bld     shift, 4    ;1 [36]
     2bc:	24 f9       	bld	r18, 4

000002be <didUnstuff4>:
didUnstuff4:
    andi    shift, 0x9f ;1 [37]
     2be:	2f 79       	andi	r18, 0x9F	; 159
    breq    unstuff4    ;1 [38]
     2c0:	71 f2       	breq	.-100    	; 0x25e <unstuff4>
    nop2                ;2 [40]
     2c2:	00 c0       	rjmp	.+0      	; 0x2c4 <didUnstuff4+0x6>
    in      x2, USBIN   ;1 [41] <-- sample bit 5
     2c4:	10 b3       	in	r17, 0x10	; 16
    eor     x1, x2      ;1 [42]
     2c6:	01 27       	eor	r16, r17
    bst     x1, USBMINUS;1 [43]
     2c8:	04 fb       	bst	r16, 4
    bld     shift, 5    ;1 [44]
     2ca:	25 f9       	bld	r18, 5

000002cc <didUnstuff5>:
didUnstuff5:
    andi    shift, 0x3f ;1 [45]
     2cc:	2f 73       	andi	r18, 0x3F	; 63
    breq    unstuff5    ;1 [46]
     2ce:	59 f2       	breq	.-106    	; 0x266 <unstuff5>
    nop2                ;2 [48]
     2d0:	00 c0       	rjmp	.+0      	; 0x2d2 <didUnstuff5+0x6>
    in      x1, USBIN   ;1 [49] <-- sample bit 6
     2d2:	00 b3       	in	r16, 0x10	; 16
    eor     x2, x1      ;1 [50]
     2d4:	10 27       	eor	r17, r16
    bst     x2, USBMINUS;1 [51]
     2d6:	14 fb       	bst	r17, 4
    bld     shift, 6    ;1 [52]
     2d8:	26 f9       	bld	r18, 6

000002da <didUnstuff6>:
didUnstuff6:
    cpi     shift, 0x02 ;1 [53]
     2da:	22 30       	cpi	r18, 0x02	; 2
    brlo    unstuff6    ;1 [54]
     2dc:	40 f2       	brcs	.-112    	; 0x26e <unstuff6>
    nop2                ;2 [56]
     2de:	00 c0       	rjmp	.+0      	; 0x2e0 <didUnstuff6+0x6>
    in      x2, USBIN   ;1 [57] <-- sample bit 7
     2e0:	10 b3       	in	r17, 0x10	; 16
    eor     x1, x2      ;1 [58]
     2e2:	01 27       	eor	r16, r17
    bst     x1, USBMINUS;1 [59]
     2e4:	04 fb       	bst	r16, 4
    bld     shift, 7    ;1 [60]
     2e6:	27 f9       	bld	r18, 7

000002e8 <didUnstuff7>:
didUnstuff7:
    cpi     shift, 0x04 ;1 [61]
     2e8:	24 30       	cpi	r18, 0x04	; 4
    brsh    rxLoop      ;2 [63] loop control
     2ea:	28 f6       	brcc	.-118    	; 0x276 <rxLoop>

000002ec <unstuff7>:
unstuff7:
    andi    x3, ~0x80   ;1 [63]
     2ec:	4f 77       	andi	r20, 0x7F	; 127
    ori     shift, 0x80 ;1 [64]
     2ee:	20 68       	ori	r18, 0x80	; 128
    in      x2, USBIN   ;1 [65] <-- sample stuffed bit 7
     2f0:	10 b3       	in	r17, 0x10	; 16
    nop                 ;1 [66]
     2f2:	00 00       	nop
    rjmp    didUnstuff7 ;2 [68]
     2f4:	f9 cf       	rjmp	.-14     	; 0x2e8 <didUnstuff7>

000002f6 <overflow>:
*/

#define token   x1

overflow:
    ldi     x2, 1<<USB_INTR_PENDING_BIT
     2f6:	10 e4       	ldi	r17, 0x40	; 64
    USB_STORE_PENDING(x2)       ; clear any pending interrupts
     2f8:	1a bf       	out	0x3a, r17	; 58

000002fa <ignorePacket>:
ignorePacket:
    clr     token
     2fa:	00 27       	eor	r16, r16
    rjmp    storeTokenAndReturn
     2fc:	19 c0       	rjmp	.+50     	; 0x330 <handleSetupOrOut>

000002fe <se0>:
; Processing of received packet (numbers in brackets are cycles after center of SE0)
;----------------------------------------------------------------------------
;This is the only non-error exit point for the software receiver loop
;we don't check any CRCs here because there is no time left.
se0:
    subi    cnt, USB_BUFSIZE    ;[5]
     2fe:	3b 50       	subi	r19, 0x0B	; 11
    neg     cnt                 ;[6]
     300:	31 95       	neg	r19
    sub     YL, cnt             ;[7]
     302:	c3 1b       	sub	r28, r19
    sbci    YH, 0               ;[8]
     304:	d0 40       	sbci	r29, 0x00	; 0
    ldi     x2, 1<<USB_INTR_PENDING_BIT ;[9]
     306:	10 e4       	ldi	r17, 0x40	; 64
    USB_STORE_PENDING(x2)       ;[10] clear pending intr and check flag later. SE0 should be over.
     308:	1a bf       	out	0x3a, r17	; 58
    ld      token, y            ;[11]
     30a:	08 81       	ld	r16, Y
    cpi     token, USBPID_DATA0 ;[13]
     30c:	03 3c       	cpi	r16, 0xC3	; 195
    breq    handleData          ;[14]
     30e:	f9 f0       	breq	.+62     	; 0x34e <handleData>
    cpi     token, USBPID_DATA1 ;[15]
     310:	0b 34       	cpi	r16, 0x4B	; 75
    breq    handleData          ;[16]
     312:	e9 f0       	breq	.+58     	; 0x34e <handleData>
    lds     shift, usbDeviceAddr;[17]
     314:	20 91 95 00 	lds	r18, 0x0095	; 0x800095 <usbDeviceAddr>
    ldd     x2, y+1             ;[19] ADDR and 1 bit endpoint number
     318:	19 81       	ldd	r17, Y+1	; 0x01
    lsl     x2                  ;[21] shift out 1 bit endpoint number
     31a:	11 0f       	add	r17, r17
    cpse    x2, shift           ;[22]
     31c:	12 13       	cpse	r17, r18
    rjmp    ignorePacket        ;[23]
     31e:	ed cf       	rjmp	.-38     	; 0x2fa <ignorePacket>
/* only compute endpoint number in x3 if required later */
#if USB_CFG_HAVE_INTRIN_ENDPOINT || USB_CFG_IMPLEMENT_FN_WRITEOUT
    ldd     x3, y+2             ;[24] endpoint number + crc
     320:	4a 81       	ldd	r20, Y+2	; 0x02
    rol     x3                  ;[26] shift in LSB of endpoint
     322:	44 1f       	adc	r20, r20
#endif
    cpi     token, USBPID_IN    ;[27]
     324:	09 36       	cpi	r16, 0x69	; 105
    breq    handleIn            ;[28]
     326:	41 f1       	breq	.+80     	; 0x378 <handleIn>
    cpi     token, USBPID_SETUP ;[29]
     328:	0d 32       	cpi	r16, 0x2D	; 45
    breq    handleSetupOrOut    ;[30]
     32a:	11 f0       	breq	.+4      	; 0x330 <handleSetupOrOut>
    cpi     token, USBPID_OUT   ;[31]
     32c:	01 3e       	cpi	r16, 0xE1	; 225
    brne    ignorePacket        ;[32] must be ack, nak or whatever
     32e:	29 f7       	brne	.-54     	; 0x2fa <ignorePacket>

00000330 <handleSetupOrOut>:
    andi    x3, 0xf             ;[32]
    breq    storeTokenAndReturn ;[33]
    mov     token, x3           ;[34] indicate that this is endpoint x OUT
#endif
storeTokenAndReturn:
    sts     usbCurrentTok, token;[35]
     330:	00 93 9c 00 	sts	0x009C, r16	; 0x80009c <usbCurrentTok>

00000334 <doReturn>:
doReturn:
    POP_STANDARD                ;[37] 12...16 cycles
     334:	3f 91       	pop	r19
     336:	4f 91       	pop	r20
     338:	1f 91       	pop	r17
     33a:	0f 91       	pop	r16
     33c:	2f 91       	pop	r18
     33e:	df 91       	pop	r29
    USB_LOAD_PENDING(YL)        ;[49]
     340:	ca b7       	in	r28, 0x3a	; 58
    sbrc    YL, USB_INTR_PENDING_BIT;[50] check whether data is already arriving
     342:	c6 fd       	sbrc	r28, 6
    rjmp    waitForJ            ;[51] save the pops and pushes -- a new interrupt is already pending
     344:	4f cf       	rjmp	.-354    	; 0x1e4 <waitForJ>

00000346 <sofError>:
sofError:
    POP_RETI                    ;macro call
     346:	cf 91       	pop	r28
     348:	cf bf       	out	0x3f, r28	; 63
     34a:	cf 91       	pop	r28
    reti
     34c:	18 95       	reti

0000034e <handleData>:

handleData:
#if USB_CFG_CHECK_CRC
    CRC_CLEANUP_AND_CHECK       ; jumps to ignorePacket if CRC error
#endif
    lds     shift, usbCurrentTok;[18]
     34e:	20 91 9c 00 	lds	r18, 0x009C	; 0x80009c <usbCurrentTok>
    tst     shift               ;[20]
     352:	22 23       	and	r18, r18
    breq    doReturn            ;[21]
     354:	79 f3       	breq	.-34     	; 0x334 <doReturn>
    lds     x2, usbRxLen        ;[22]
     356:	10 91 9a 00 	lds	r17, 0x009A	; 0x80009a <usbRxLen>
    tst     x2                  ;[24]
     35a:	11 23       	and	r17, r17
    brne    sendNakAndReti      ;[25]
     35c:	69 f5       	brne	.+90     	; 0x3b8 <sendNakAndReti>
; 2006-03-11: The following two lines fix a problem where the device was not
; recognized if usbPoll() was called less frequently than once every 4 ms.
    cpi     cnt, 4              ;[26] zero sized data packets are status phase only -- ignore and ack
     35e:	34 30       	cpi	r19, 0x04	; 4
    brmi    sendAckAndReti      ;[27] keep rx buffer clean -- we must not NAK next SETUP
     360:	6a f1       	brmi	.+90     	; 0x3bc <sendAckAndReti>
#if USB_CFG_CHECK_DATA_TOGGLING
    sts     usbCurrentDataToken, token  ; store for checking by C code
#endif
    sts     usbRxLen, cnt       ;[28] store received data, swap buffers
     362:	30 93 9a 00 	sts	0x009A, r19	; 0x80009a <usbRxLen>
    sts     usbRxToken, shift   ;[30]
     366:	20 93 96 00 	sts	0x0096, r18	; 0x800096 <usbRxToken>
    lds     x2, usbInputBufOffset;[32] swap buffers
     36a:	10 91 97 00 	lds	r17, 0x0097	; 0x800097 <usbInputBufOffset>
    ldi     cnt, USB_BUFSIZE    ;[34]
     36e:	3b e0       	ldi	r19, 0x0B	; 11
    sub     cnt, x2             ;[35]
     370:	31 1b       	sub	r19, r17
    sts     usbInputBufOffset, cnt;[36] buffers now swapped
     372:	30 93 97 00 	sts	0x0097, r19	; 0x800097 <usbInputBufOffset>
    rjmp    sendAckAndReti      ;[38] 40 + 17 = 57 until SOP
     376:	22 c0       	rjmp	.+68     	; 0x3bc <sendAckAndReti>

00000378 <handleIn>:

handleIn:
;We don't send any data as long as the C code has not processed the current
;input data and potentially updated the output data. That's more efficient
;in terms of code size than clearing the tx buffers when a packet is received.
    lds     x1, usbRxLen        ;[30]
     378:	00 91 9a 00 	lds	r16, 0x009A	; 0x80009a <usbRxLen>
    cpi     x1, 1               ;[32] negative values are flow control, 0 means "buffer free"
     37c:	01 30       	cpi	r16, 0x01	; 1
    brge    sendNakAndReti      ;[33] unprocessed input packet?
     37e:	e4 f4       	brge	.+56     	; 0x3b8 <sendNakAndReti>
    ldi     x1, USBPID_NAK      ;[34] prepare value for usbTxLen
     380:	0a e5       	ldi	r16, 0x5A	; 90
#if USB_CFG_HAVE_INTRIN_ENDPOINT
    andi    x3, 0xf             ;[35] x3 contains endpoint
     382:	4f 70       	andi	r20, 0x0F	; 15
#if USB_CFG_SUPPRESS_INTR_CODE
    brne    sendNakAndReti      ;[36]
#else
    brne    handleIn1           ;[36]
     384:	49 f4       	brne	.+18     	; 0x398 <handleIn1>
#endif
#endif
    lds     cnt, usbTxLen       ;[37]
     386:	30 91 69 00 	lds	r19, 0x0069	; 0x800069 <usbTxLen>
    sbrc    cnt, 4              ;[39] all handshake tokens have bit 4 set
     38a:	34 fd       	sbrc	r19, 4
    rjmp    sendCntAndReti      ;[40] 42 + 16 = 58 until SOP
     38c:	19 c0       	rjmp	.+50     	; 0x3c0 <sendCntAndReti>
    sts     usbTxLen, x1        ;[41] x1 == USBPID_NAK from above
     38e:	00 93 69 00 	sts	0x0069, r16	; 0x800069 <usbTxLen>
    ldi     YL, lo8(usbTxBuf)   ;[43]
     392:	ce e7       	ldi	r28, 0x7E	; 126
    ldi     YH, hi8(usbTxBuf)   ;[44]
     394:	d0 e0       	ldi	r29, 0x00	; 0
    rjmp    usbSendAndReti      ;[45] 57 + 12 = 59 until SOP
     396:	18 c0       	rjmp	.+48     	; 0x3c8 <usbSendAndReti>

00000398 <handleIn1>:
#if USB_CFG_HAVE_INTRIN_ENDPOINT3
; 2006-06-10 as suggested by O.Tamura: support second INTR IN / BULK IN endpoint
    cpi     x3, USB_CFG_EP3_NUMBER;[38]
    breq    handleIn3           ;[39]
#endif
    lds     cnt, usbTxLen1      ;[40]
     398:	30 91 89 00 	lds	r19, 0x0089	; 0x800089 <usbTxStatus1>
    sbrc    cnt, 4              ;[42] all handshake tokens have bit 4 set
     39c:	34 fd       	sbrc	r19, 4
    rjmp    sendCntAndReti      ;[43] 47 + 16 = 63 until SOP
     39e:	10 c0       	rjmp	.+32     	; 0x3c0 <sendCntAndReti>
    sts     usbTxLen1, x1       ;[44] x1 == USBPID_NAK from above
     3a0:	00 93 89 00 	sts	0x0089, r16	; 0x800089 <usbTxStatus1>
    ldi     YL, lo8(usbTxBuf1)  ;[46]
     3a4:	ca e8       	ldi	r28, 0x8A	; 138
    ldi     YH, hi8(usbTxBuf1)  ;[47]
     3a6:	d0 e0       	ldi	r29, 0x00	; 0
    rjmp    usbSendAndReti      ;[48] 50 + 12 = 62 until SOP
     3a8:	0f c0       	rjmp	.+30     	; 0x3c8 <usbSendAndReti>

000003aa <stuffN1Delay>:
;----------------------------------------------------------------------------

txByteLoop:
txBitloop:
stuffN1Delay:                   ;     [03]
    ror     shift               ;[-5] [11] [59]
     3aa:	27 95       	ror	r18
    brcc    doExorN1            ;[-4]      [60]
     3ac:	a8 f4       	brcc	.+42     	; 0x3d8 <doExorN1>
    subi    x4, 1               ;[-3]
     3ae:	51 50       	subi	r21, 0x01	; 1
    brne    commonN1            ;[-2]
     3b0:	a9 f4       	brne	.+42     	; 0x3dc <commonN1>
    lsl     shift               ;[-1] compensate ror after rjmp stuffDelay
     3b2:	22 0f       	add	r18, r18
    nop                         ;[00] stuffing consists of just waiting 8 cycles
     3b4:	00 00       	nop
    rjmp    stuffN1Delay        ;[01] after ror, C bit is reliably clear
     3b6:	f9 cf       	rjmp	.-14     	; 0x3aa <stuffN1Delay>

000003b8 <sendNakAndReti>:

sendNakAndReti:                 ;0 [-19] 19 cycles until SOP
    ldi     x3, USBPID_NAK      ;1 [-18]
     3b8:	4a e5       	ldi	r20, 0x5A	; 90
    rjmp    usbSendX3           ;2 [-16]
     3ba:	03 c0       	rjmp	.+6      	; 0x3c2 <usbSendX3>

000003bc <sendAckAndReti>:
sendAckAndReti:                 ;0 [-19] 19 cycles until SOP
    ldi     x3, USBPID_ACK      ;1 [-18]
     3bc:	42 ed       	ldi	r20, 0xD2	; 210
    rjmp    usbSendX3           ;2 [-16]
     3be:	01 c0       	rjmp	.+2      	; 0x3c2 <usbSendX3>

000003c0 <sendCntAndReti>:
sendCntAndReti:                 ;0 [-17] 17 cycles until SOP
    mov     x3, cnt             ;1 [-16]
     3c0:	43 2f       	mov	r20, r19

000003c2 <usbSendX3>:
usbSendX3:                      ;0 [-16]
    ldi     YL, 20              ;1 [-15] 'x3' is R20
     3c2:	c4 e1       	ldi	r28, 0x14	; 20
    ldi     YH, 0               ;1 [-14]
     3c4:	d0 e0       	ldi	r29, 0x00	; 0
    ldi     cnt, 2              ;1 [-13]
     3c6:	32 e0       	ldi	r19, 0x02	; 2

000003c8 <usbSendAndReti>:
;pointer to data in 'Y'
;number of bytes in 'cnt' -- including sync byte
;uses: x1...x2, x4, shift, cnt, Y [x1 = mirror USBOUT, x2 = USBMASK, x4 = bitstuff cnt]
;Numbers in brackets are time since first bit of sync pattern is sent (start of instruction)
usbSendAndReti:
    in      x2, USBDDR          ;[-12] 12 cycles until SOP
     3c8:	11 b3       	in	r17, 0x11	; 17
    ori     x2, USBMASK         ;[-11]
     3ca:	14 61       	ori	r17, 0x14	; 20
    sbi     USBOUT, USBMINUS    ;[-10] prepare idle state; D+ and D- must have been 0 (no pullups)
     3cc:	94 9a       	sbi	0x12, 4	; 18
    out     USBDDR, x2          ;[-8] <--- acquire bus
     3ce:	11 bb       	out	0x11, r17	; 17
    in      x1, USBOUT          ;[-7] port mirror for tx loop
     3d0:	02 b3       	in	r16, 0x12	; 18
    ldi     shift, 0x40         ;[-6] sync byte is first byte sent (we enter loop after ror)
     3d2:	20 e4       	ldi	r18, 0x40	; 64
    ldi     x2, USBMASK         ;[-5]
     3d4:	14 e1       	ldi	r17, 0x14	; 20
    push    x4                  ;[-4]
     3d6:	5f 93       	push	r21

000003d8 <doExorN1>:
doExorN1:
    eor     x1, x2              ;[-2] [06] [62]
     3d8:	01 27       	eor	r16, r17
    ldi     x4, 6               ;[-1] [07] [63]
     3da:	56 e0       	ldi	r21, 0x06	; 6

000003dc <commonN1>:
commonN1:
stuffN2Delay:
    out     USBOUT, x1          ;[00] [08] [64] <--- set bit
     3dc:	02 bb       	out	0x12, r16	; 18
    ror     shift               ;[01]
     3de:	27 95       	ror	r18
    brcc    doExorN2            ;[02]
     3e0:	20 f4       	brcc	.+8      	; 0x3ea <doExorN2>
    subi    x4, 1               ;[03]
     3e2:	51 50       	subi	r21, 0x01	; 1
    brne    commonN2            ;[04]
     3e4:	21 f4       	brne	.+8      	; 0x3ee <commonN2>
    lsl     shift               ;[05] compensate ror after rjmp stuffDelay
     3e6:	22 0f       	add	r18, r18
    rjmp    stuffN2Delay        ;[06] after ror, C bit is reliably clear
     3e8:	f9 cf       	rjmp	.-14     	; 0x3dc <commonN1>

000003ea <doExorN2>:
doExorN2:
    eor     x1, x2              ;[04] [12]
     3ea:	01 27       	eor	r16, r17
    ldi     x4, 6               ;[05] [13]
     3ec:	56 e0       	ldi	r21, 0x06	; 6

000003ee <commonN2>:
commonN2:
    nop                         ;[06] [14]
     3ee:	00 00       	nop
    subi    cnt, 171            ;[07] [15] trick: (3 * 171) & 0xff = 1
     3f0:	3b 5a       	subi	r19, 0xAB	; 171
    out     USBOUT, x1          ;[08] [16] <--- set bit
     3f2:	02 bb       	out	0x12, r16	; 18
    brcs    txBitloop           ;[09]      [25] [41]
     3f4:	d0 f2       	brcs	.-76     	; 0x3aa <stuffN1Delay>

000003f6 <stuff6Delay>:

stuff6Delay:
    ror     shift               ;[42] [50]
     3f6:	27 95       	ror	r18
    brcc    doExor6             ;[43]
     3f8:	28 f4       	brcc	.+10     	; 0x404 <doExor6>
    subi    x4, 1               ;[44]
     3fa:	51 50       	subi	r21, 0x01	; 1
    brne    common6             ;[45]
     3fc:	29 f4       	brne	.+10     	; 0x408 <common6>
    lsl     shift               ;[46] compensate ror after rjmp stuffDelay
     3fe:	22 0f       	add	r18, r18
    nop                         ;[47] stuffing consists of just waiting 8 cycles
     400:	00 00       	nop
    rjmp    stuff6Delay         ;[48] after ror, C bit is reliably clear
     402:	f9 cf       	rjmp	.-14     	; 0x3f6 <stuff6Delay>

00000404 <doExor6>:
doExor6:
    eor     x1, x2              ;[45] [53]
     404:	01 27       	eor	r16, r17
    ldi     x4, 6               ;[46]
     406:	56 e0       	ldi	r21, 0x06	; 6

00000408 <common6>:
common6:
stuff7Delay:
    ror     shift               ;[47] [55]
     408:	27 95       	ror	r18
    out     USBOUT, x1          ;[48] <--- set bit
     40a:	02 bb       	out	0x12, r16	; 18
    brcc    doExor7             ;[49]
     40c:	20 f4       	brcc	.+8      	; 0x416 <doExor7>
    subi    x4, 1               ;[50]
     40e:	51 50       	subi	r21, 0x01	; 1
    brne    common7             ;[51]
     410:	21 f4       	brne	.+8      	; 0x41a <common7>
    lsl     shift               ;[52] compensate ror after rjmp stuffDelay
     412:	22 0f       	add	r18, r18
    rjmp    stuff7Delay         ;[53] after ror, C bit is reliably clear
     414:	f9 cf       	rjmp	.-14     	; 0x408 <common6>

00000416 <doExor7>:
doExor7:
    eor     x1, x2              ;[51] [59]
     416:	01 27       	eor	r16, r17
    ldi     x4, 6               ;[52]
     418:	56 e0       	ldi	r21, 0x06	; 6

0000041a <common7>:
common7:
    ld      shift, y+           ;[53]
     41a:	29 91       	ld	r18, Y+
    tst     cnt                 ;[55]
     41c:	33 23       	and	r19, r19
    out     USBOUT, x1          ;[56] <--- set bit
     41e:	02 bb       	out	0x12, r16	; 18
    brne    txByteLoop          ;[57]
     420:	21 f6       	brne	.-120    	; 0x3aa <stuffN1Delay>

;make SE0:
    cbr     x1, USBMASK         ;[58] prepare SE0 [spec says EOP may be 15 to 18 cycles]
     422:	0b 7e       	andi	r16, 0xEB	; 235
    lds     x2, usbNewDeviceAddr;[59]
     424:	10 91 9b 00 	lds	r17, 0x009B	; 0x80009b <usbNewDeviceAddr>
    lsl     x2                  ;[61] we compare with left shifted address
     428:	11 0f       	add	r17, r17
    subi    YL, 2 + 20          ;[62] Only assign address on data packets, not ACK/NAK in x3
     42a:	c6 51       	subi	r28, 0x16	; 22
    sbci    YH, 0               ;[63]
     42c:	d0 40       	sbci	r29, 0x00	; 0
    out     USBOUT, x1          ;[00] <-- out SE0 -- from now 2 bits = 16 cycles until bus idle
     42e:	02 bb       	out	0x12, r16	; 18
;2006-03-06: moved transfer of new address to usbDeviceAddr from C-Code to asm:
;set address only after data packet was sent, not after handshake
    breq    skipAddrAssign      ;[01]
     430:	11 f0       	breq	.+4      	; 0x436 <skipAddrAssign>
    sts     usbDeviceAddr, x2   ; if not skipped: SE0 is one cycle longer
     432:	10 93 95 00 	sts	0x0095, r17	; 0x800095 <usbDeviceAddr>

00000436 <skipAddrAssign>:
skipAddrAssign:
;end of usbDeviceAddress transfer
    ldi     x2, 1<<USB_INTR_PENDING_BIT;[03] int0 occurred during TX -- clear pending flag
     436:	10 e4       	ldi	r17, 0x40	; 64
    USB_STORE_PENDING(x2)       ;[04]
     438:	1a bf       	out	0x3a, r17	; 58
    ori     x1, USBIDLE         ;[05]
     43a:	00 61       	ori	r16, 0x10	; 16
    in      x2, USBDDR          ;[06]
     43c:	11 b3       	in	r17, 0x11	; 17
    cbr     x2, USBMASK         ;[07] set both pins to input
     43e:	1b 7e       	andi	r17, 0xEB	; 235
    mov     x3, x1              ;[08]
     440:	40 2f       	mov	r20, r16
    cbr     x3, USBMASK         ;[09] configure no pullup on both pins
     442:	4b 7e       	andi	r20, 0xEB	; 235
    pop     x4                  ;[10]
     444:	5f 91       	pop	r21
    nop2                        ;[12]
     446:	00 c0       	rjmp	.+0      	; 0x448 <skipAddrAssign+0x12>
    nop2                        ;[14]
     448:	00 c0       	rjmp	.+0      	; 0x44a <skipAddrAssign+0x14>
    out     USBOUT, x1          ;[16] <-- out J (idle) -- end of SE0 (EOP signal)
     44a:	02 bb       	out	0x12, r16	; 18
    out     USBDDR, x2          ;[17] <-- release bus now
     44c:	11 bb       	out	0x11, r17	; 17
    out     USBOUT, x3          ;[18] <-- ensure no pull-up resistors are active
     44e:	42 bb       	out	0x12, r20	; 18
    rjmp    doReturn
     450:	71 cf       	rjmp	.-286    	; 0x334 <doReturn>

00000452 <App_Init>:
	if( sensor_S>LOW_CALIBRATED && sensor_G>LOW_CALIBRATED && sensor_A>LOW_CALIBRATED && sensor_M>LOW_CALIBRATED )
	{
		return CALIBRATED;
	}
	return NOT_CALIBRATED;
}
     452:	8b b3       	in	r24, 0x1b	; 27
     454:	60 e0       	ldi	r22, 0x00	; 0
     456:	0e 94 c3 04 	call	0x986	; 0x986 <LED_Init>
     45a:	8b b3       	in	r24, 0x1b	; 27
     45c:	60 e0       	ldi	r22, 0x00	; 0
     45e:	0e 94 c7 04 	call	0x98e	; 0x98e <LED_TurnOn>
     462:	8b b3       	in	r24, 0x1b	; 27
     464:	61 e0       	ldi	r22, 0x01	; 1
     466:	0e 94 c3 04 	call	0x986	; 0x986 <LED_Init>
     46a:	0e 94 35 04 	call	0x86a	; 0x86a <BNO055_Init>
     46e:	0e 94 2f 05 	call	0xa5e	; 0xa5e <Mouse_init>
     472:	80 91 64 00 	lds	r24, 0x0064	; 0x800064 <TouchSensor_config>
     476:	90 91 65 00 	lds	r25, 0x0065	; 0x800065 <TouchSensor_config+0x1>
     47a:	0e 94 64 05 	call	0xac8	; 0xac8 <Touch_Init>
     47e:	08 95       	ret

00000480 <App_OrderMouse>:
     480:	90 e0       	ldi	r25, 0x00	; 0
     482:	87 30       	cpi	r24, 0x07	; 7
     484:	91 05       	cpc	r25, r1
     486:	f8 f4       	brcc	.+62     	; 0x4c6 <App_OrderMouse+0x46>
     488:	fc 01       	movw	r30, r24
     48a:	e6 5d       	subi	r30, 0xD6	; 214
     48c:	ff 4f       	sbci	r31, 0xFF	; 255
     48e:	0c 94 19 0c 	jmp	0x1832	; 0x1832 <__tablejump2__>
     492:	0e 94 4c 05 	call	0xa98	; 0xa98 <Mouse_MoveLeft>
     496:	08 95       	ret
     498:	0e 94 50 05 	call	0xaa0	; 0xaa0 <Mouse_MoveRight>
     49c:	08 95       	ret
     49e:	0e 94 54 05 	call	0xaa8	; 0xaa8 <Mouse_MoveUp>
     4a2:	08 95       	ret
     4a4:	0e 94 58 05 	call	0xab0	; 0xab0 <Mouse_MoveDown>
     4a8:	08 95       	ret
     4aa:	0e 94 60 05 	call	0xac0	; 0xac0 <Mouse_LeftClick>
     4ae:	08 95       	ret
     4b0:	0e 94 5c 05 	call	0xab8	; 0xab8 <Mouse_RightClick>
     4b4:	08 95       	ret
     4b6:	0e 94 5c 05 	call	0xab8	; 0xab8 <Mouse_RightClick>
     4ba:	81 e0       	ldi	r24, 0x01	; 1
     4bc:	90 e0       	ldi	r25, 0x00	; 0
     4be:	0e 94 8f 04 	call	0x91e	; 0x91e <Delay_ms_independent>
     4c2:	0e 94 5c 05 	call	0xab8	; 0xab8 <Mouse_RightClick>
     4c6:	08 95       	ret

000004c8 <App_GetTouchSensorState>:
     4c8:	80 91 64 00 	lds	r24, 0x0064	; 0x800064 <TouchSensor_config>
     4cc:	90 91 65 00 	lds	r25, 0x0065	; 0x800065 <TouchSensor_config+0x1>
     4d0:	0e 94 69 05 	call	0xad2	; 0xad2 <Touch_Read>
     4d4:	81 30       	cpi	r24, 0x01	; 1
     4d6:	51 f4       	brne	.+20     	; 0x4ec <App_GetTouchSensorState+0x24>
     4d8:	8b b3       	in	r24, 0x1b	; 27
     4da:	61 e0       	ldi	r22, 0x01	; 1
     4dc:	0e 94 c7 04 	call	0x98e	; 0x98e <LED_TurnOn>
     4e0:	8b b3       	in	r24, 0x1b	; 27
     4e2:	60 e0       	ldi	r22, 0x00	; 0
     4e4:	0e 94 ca 04 	call	0x994	; 0x994 <LED_TurnOff>
     4e8:	81 e0       	ldi	r24, 0x01	; 1
     4ea:	08 95       	ret
     4ec:	8b b3       	in	r24, 0x1b	; 27
     4ee:	61 e0       	ldi	r22, 0x01	; 1
     4f0:	0e 94 ca 04 	call	0x994	; 0x994 <LED_TurnOff>
     4f4:	8b b3       	in	r24, 0x1b	; 27
     4f6:	60 e0       	ldi	r22, 0x00	; 0
     4f8:	0e 94 c7 04 	call	0x98e	; 0x98e <LED_TurnOn>
     4fc:	80 e0       	ldi	r24, 0x00	; 0
     4fe:	08 95       	ret

00000500 <App_GetImuCalibPoint>:
     500:	83 e7       	ldi	r24, 0x73	; 115
     502:	90 e0       	ldi	r25, 0x00	; 0
     504:	0e 94 e9 03 	call	0x7d2	; 0x7d2 <BNO055_ReadEulerAngles>
     508:	08 95       	ret

0000050a <App_GetLargestAngle>:
 * return: index of the largest value (1 or 2 or 3) -> u8_t
 * Ex: index = App_GetLargestAngle(54,21,100); -> index=3
 */
u8_t App_GetLargestAngle(s16_t value1,s16_t value2,s16_t value3)
{ // yaw roll pitch
	value1 = abs(value1);
     50a:	9c 01       	movw	r18, r24
     50c:	99 23       	and	r25, r25
     50e:	24 f4       	brge	.+8      	; 0x518 <App_GetLargestAngle+0xe>
     510:	22 27       	eor	r18, r18
     512:	33 27       	eor	r19, r19
     514:	28 1b       	sub	r18, r24
     516:	39 0b       	sbc	r19, r25
	value2 = abs(value2);
     518:	cb 01       	movw	r24, r22
     51a:	99 23       	and	r25, r25
     51c:	24 f4       	brge	.+8      	; 0x526 <App_GetLargestAngle+0x1c>
     51e:	88 27       	eor	r24, r24
     520:	99 27       	eor	r25, r25
     522:	86 1b       	sub	r24, r22
     524:	97 0b       	sbc	r25, r23
	value3 = abs(value3);
     526:	ba 01       	movw	r22, r20
     528:	55 23       	and	r21, r21
     52a:	24 f4       	brge	.+8      	; 0x534 <App_GetLargestAngle+0x2a>
     52c:	66 27       	eor	r22, r22
     52e:	77 27       	eor	r23, r23
     530:	64 1b       	sub	r22, r20
     532:	75 0b       	sbc	r23, r21
	if(value1 > value2)
     534:	82 17       	cp	r24, r18
     536:	93 07       	cpc	r25, r19
     538:	2c f4       	brge	.+10     	; 0x544 <App_GetLargestAngle+0x3a>
	{
		if(value1 > value3)		{ return 1; }
     53a:	62 17       	cp	r22, r18
     53c:	73 07       	cpc	r23, r19
     53e:	3c f4       	brge	.+14     	; 0x54e <App_GetLargestAngle+0x44>
     540:	81 e0       	ldi	r24, 0x01	; 1
     542:	08 95       	ret
		else 					{ return 3; }
	}
	else
	{
		if(value2 > value3)		{ return 2; }
     544:	68 17       	cp	r22, r24
     546:	79 07       	cpc	r23, r25
     548:	24 f4       	brge	.+8      	; 0x552 <App_GetLargestAngle+0x48>
     54a:	82 e0       	ldi	r24, 0x02	; 2
     54c:	08 95       	ret
	value2 = abs(value2);
	value3 = abs(value3);
	if(value1 > value2)
	{
		if(value1 > value3)		{ return 1; }
		else 					{ return 3; }
     54e:	83 e0       	ldi	r24, 0x03	; 3
     550:	08 95       	ret
	}
	else
	{
		if(value2 > value3)		{ return 2; }
		else 					{ return 3; }
     552:	83 e0       	ldi	r24, 0x03	; 3
	}
     554:	08 95       	ret

00000556 <App_GetImuGradient>:
 * Args: None
 * Return: u8_t gradient_Direction -> (LEFT, RIGHT, UP, DOWN)
 * Ex: u8_t direction = App_GetImuGradient();
 */				
u8_t App_GetImuGradient(void)
{
     556:	cf 92       	push	r12
     558:	df 92       	push	r13
     55a:	ef 92       	push	r14
     55c:	ff 92       	push	r15
     55e:	0f 93       	push	r16
     560:	1f 93       	push	r17
     562:	cf 93       	push	r28
     564:	df 93       	push	r29
     566:	00 d0       	rcall	.+0      	; 0x568 <App_GetImuGradient+0x12>
     568:	00 d0       	rcall	.+0      	; 0x56a <App_GetImuGradient+0x14>
     56a:	00 d0       	rcall	.+0      	; 0x56c <App_GetImuGradient+0x16>
     56c:	cd b7       	in	r28, 0x3d	; 61
     56e:	de b7       	in	r29, 0x3e	; 62
	static u16_t period = 1000; // to control cursor speed with
	
	// define cursor speed
	Delay_ms_independent(period);
     570:	80 91 60 00 	lds	r24, 0x0060	; 0x800060 <__DATA_REGION_ORIGIN__>
     574:	90 91 61 00 	lds	r25, 0x0061	; 0x800061 <__DATA_REGION_ORIGIN__+0x1>
     578:	0e 94 8f 04 	call	0x91e	; 0x91e <Delay_ms_independent>
	s16_t absolute_gradient[3]; // current_reading - reference_point
	//-- get current imu reading
	BNO055_ReadEulerAngles(current_reading);
     57c:	8d e6       	ldi	r24, 0x6D	; 109
     57e:	90 e0       	ldi	r25, 0x00	; 0
     580:	0e 94 e9 03 	call	0x7d2	; 0x7d2 <BNO055_ReadEulerAngles>
	//-- compare this reading to calibration point to know imu (head) gradient
	absolute_gradient[0] = current_reading[0] - reference_angles[0]; // YAW
     584:	ad e6       	ldi	r26, 0x6D	; 109
     586:	b0 e0       	ldi	r27, 0x00	; 0
     588:	0d 91       	ld	r16, X+
     58a:	1c 91       	ld	r17, X
     58c:	11 97       	sbiw	r26, 0x01	; 1
     58e:	e3 e7       	ldi	r30, 0x73	; 115
     590:	f0 e0       	ldi	r31, 0x00	; 0
     592:	80 81       	ld	r24, Z
     594:	91 81       	ldd	r25, Z+1	; 0x01
     596:	08 1b       	sub	r16, r24
     598:	19 0b       	sbc	r17, r25
     59a:	1a 83       	std	Y+2, r17	; 0x02
     59c:	09 83       	std	Y+1, r16	; 0x01
	absolute_gradient[1] = current_reading[1] - reference_angles[1]; // ROLL
     59e:	12 96       	adiw	r26, 0x02	; 2
     5a0:	ed 90       	ld	r14, X+
     5a2:	fc 90       	ld	r15, X
     5a4:	13 97       	sbiw	r26, 0x03	; 3
     5a6:	82 81       	ldd	r24, Z+2	; 0x02
     5a8:	93 81       	ldd	r25, Z+3	; 0x03
     5aa:	e8 1a       	sub	r14, r24
     5ac:	f9 0a       	sbc	r15, r25
     5ae:	fc 82       	std	Y+4, r15	; 0x04
     5b0:	eb 82       	std	Y+3, r14	; 0x03
	absolute_gradient[2] = current_reading[2] - reference_angles[2]; // PITCH
     5b2:	14 96       	adiw	r26, 0x04	; 4
     5b4:	cd 90       	ld	r12, X+
     5b6:	dc 90       	ld	r13, X
     5b8:	15 97       	sbiw	r26, 0x05	; 5
     5ba:	84 81       	ldd	r24, Z+4	; 0x04
     5bc:	95 81       	ldd	r25, Z+5	; 0x05
     5be:	c8 1a       	sub	r12, r24
     5c0:	d9 0a       	sbc	r13, r25
     5c2:	de 82       	std	Y+6, r13	; 0x06
     5c4:	cd 82       	std	Y+5, r12	; 0x05
	//-- decide depending on calculations to which direction mouse should move
	// get the largest angle of them (sign isn't considered)
	u8_t angle_name = App_GetLargestAngle(absolute_gradient[0],absolute_gradient[1],absolute_gradient[2]);
     5c6:	a6 01       	movw	r20, r12
     5c8:	b7 01       	movw	r22, r14
     5ca:	c8 01       	movw	r24, r16
     5cc:	0e 94 85 02 	call	0x50a	; 0x50a <App_GetLargestAngle>
	
	// change period to set cursor speed 
	switch (absolute_gradient[angle_name])
     5d0:	e8 2f       	mov	r30, r24
     5d2:	f0 e0       	ldi	r31, 0x00	; 0
     5d4:	ee 0f       	add	r30, r30
     5d6:	ff 1f       	adc	r31, r31
     5d8:	21 e0       	ldi	r18, 0x01	; 1
     5da:	30 e0       	ldi	r19, 0x00	; 0
     5dc:	2c 0f       	add	r18, r28
     5de:	3d 1f       	adc	r19, r29
     5e0:	e2 0f       	add	r30, r18
     5e2:	f3 1f       	adc	r31, r19
     5e4:	20 81       	ld	r18, Z
     5e6:	31 81       	ldd	r19, Z+1	; 0x01
     5e8:	2a 30       	cpi	r18, 0x0A	; 10
     5ea:	31 05       	cpc	r19, r1
     5ec:	ac f0       	brlt	.+42     	; 0x618 <App_GetImuGradient+0xc2>
     5ee:	25 31       	cpi	r18, 0x15	; 21
     5f0:	31 05       	cpc	r19, r1
     5f2:	24 f0       	brlt	.+8      	; 0x5fc <App_GetImuGradient+0xa6>
     5f4:	24 32       	cpi	r18, 0x24	; 36
     5f6:	31 05       	cpc	r19, r1
     5f8:	44 f0       	brlt	.+16     	; 0x60a <App_GetImuGradient+0xb4>
     5fa:	0e c0       	rjmp	.+28     	; 0x618 <App_GetImuGradient+0xc2>
	{
		// 10 -> threshold
		case 10 ... 20:
			period = 1000;
     5fc:	48 ee       	ldi	r20, 0xE8	; 232
     5fe:	53 e0       	ldi	r21, 0x03	; 3
     600:	50 93 61 00 	sts	0x0061, r21	; 0x800061 <__DATA_REGION_ORIGIN__+0x1>
     604:	40 93 60 00 	sts	0x0060, r20	; 0x800060 <__DATA_REGION_ORIGIN__>
			break;
     608:	0b c0       	rjmp	.+22     	; 0x620 <App_GetImuGradient+0xca>
		case 21 ... 35:
			period = 400;
     60a:	40 e9       	ldi	r20, 0x90	; 144
     60c:	51 e0       	ldi	r21, 0x01	; 1
     60e:	50 93 61 00 	sts	0x0061, r21	; 0x800061 <__DATA_REGION_ORIGIN__+0x1>
     612:	40 93 60 00 	sts	0x0060, r20	; 0x800060 <__DATA_REGION_ORIGIN__>
			break;
     616:	04 c0       	rjmp	.+8      	; 0x620 <App_GetImuGradient+0xca>
		default: // larger than 60
			period = 0;
     618:	10 92 61 00 	sts	0x0061, r1	; 0x800061 <__DATA_REGION_ORIGIN__+0x1>
     61c:	10 92 60 00 	sts	0x0060, r1	; 0x800060 <__DATA_REGION_ORIGIN__>
			break;
	}
	
	// take action on mouse according to angle
	switch(angle_name)
     620:	82 30       	cpi	r24, 0x02	; 2
     622:	31 f0       	breq	.+12     	; 0x630 <App_GetImuGradient+0xda>
     624:	83 30       	cpi	r24, 0x03	; 3
     626:	01 f1       	breq	.+64     	; 0x668 <App_GetImuGradient+0x112>
     628:	81 30       	cpi	r24, 0x01	; 1
     62a:	09 f0       	breq	.+2      	; 0x62e <App_GetImuGradient+0xd8>
     62c:	46 c0       	rjmp	.+140    	; 0x6ba <App_GetImuGradient+0x164>
     62e:	30 c0       	rjmp	.+96     	; 0x690 <App_GetImuGradient+0x13a>
	{
		// head is turned around X-axis
		case ROLL:
			// positive angle > threshold?
			if(absolute_gradient[0] >= THRESHOLD_X && RIGHT_CLICK_FLAG)
     630:	0a 30       	cpi	r16, 0x0A	; 10
     632:	11 05       	cpc	r17, r1
     634:	5c f0       	brlt	.+22     	; 0x64c <App_GetImuGradient+0xf6>
     636:	80 91 63 00 	lds	r24, 0x0063	; 0x800063 <RIGHT_CLICK_FLAG>
     63a:	88 23       	and	r24, r24
     63c:	39 f0       	breq	.+14     	; 0x64c <App_GetImuGradient+0xf6>
			{ 
				// disable flag to stop sending this signal multiple times
				RIGHT_CLICK_FLAG = DISABLED;
     63e:	10 92 63 00 	sts	0x0063, r1	; 0x800063 <RIGHT_CLICK_FLAG>
				// small angle (<25) -> single right click
				if (absolute_gradient[angle_name] < 25)
     642:	29 31       	cpi	r18, 0x19	; 25
     644:	31 05       	cpc	r19, r1
     646:	dc f5       	brge	.+118    	; 0x6be <App_GetImuGradient+0x168>
				{
					return RIGHT_CLICK;
     648:	85 e0       	ldi	r24, 0x05	; 5
     64a:	42 c0       	rjmp	.+132    	; 0x6d0 <App_GetImuGradient+0x17a>
				}
				// larger angle -> double right click
				 return DOUBLE_RIGHT_CLICK;
			}
			// negative angle > threshold?
			else if ( (-1*absolute_gradient[0]) >= THRESHOLD_X && LEFT_CLICK_FLAG)
     64c:	11 95       	neg	r17
     64e:	01 95       	neg	r16
     650:	11 09       	sbc	r17, r1
     652:	0a 30       	cpi	r16, 0x0A	; 10
     654:	11 05       	cpc	r17, r1
     656:	ac f1       	brlt	.+106    	; 0x6c2 <App_GetImuGradient+0x16c>
     658:	80 91 62 00 	lds	r24, 0x0062	; 0x800062 <LEFT_CLICK_FLAG>
     65c:	88 23       	and	r24, r24
     65e:	99 f1       	breq	.+102    	; 0x6c6 <App_GetImuGradient+0x170>
			{
				// disable flag to stop sending this signal multiple times
				 LEFT_CLICK_FLAG = DISABLED;
     660:	10 92 62 00 	sts	0x0062, r1	; 0x800062 <LEFT_CLICK_FLAG>
				 return LEFT_CLICK; 
     664:	84 e0       	ldi	r24, 0x04	; 4
     666:	34 c0       	rjmp	.+104    	; 0x6d0 <App_GetImuGradient+0x17a>
			}
			break;
		// head is turned around Y-axis
		case PITCH:
		// enable flags so the signal can be sent again
			if(absolute_gradient[1] >= THRESHOLD_Y){ RIGHT_CLICK_FLAG = ENABLED; RIGHT_CLICK_FLAG = ENABLED; return UP; }
     668:	3a e0       	ldi	r19, 0x0A	; 10
     66a:	e3 16       	cp	r14, r19
     66c:	f1 04       	cpc	r15, r1
     66e:	2c f0       	brlt	.+10     	; 0x67a <App_GetImuGradient+0x124>
     670:	81 e0       	ldi	r24, 0x01	; 1
     672:	80 93 63 00 	sts	0x0063, r24	; 0x800063 <RIGHT_CLICK_FLAG>
     676:	80 e0       	ldi	r24, 0x00	; 0
     678:	2b c0       	rjmp	.+86     	; 0x6d0 <App_GetImuGradient+0x17a>
			else if ( (-1*absolute_gradient[1]) >= THRESHOLD_Y ){ RIGHT_CLICK_FLAG = ENABLED; RIGHT_CLICK_FLAG = ENABLED; return DOWN; }
     67a:	f1 94       	neg	r15
     67c:	e1 94       	neg	r14
     67e:	f1 08       	sbc	r15, r1
     680:	8a e0       	ldi	r24, 0x0A	; 10
     682:	e8 16       	cp	r14, r24
     684:	f1 04       	cpc	r15, r1
     686:	0c f1       	brlt	.+66     	; 0x6ca <App_GetImuGradient+0x174>
     688:	81 e0       	ldi	r24, 0x01	; 1
     68a:	80 93 63 00 	sts	0x0063, r24	; 0x800063 <RIGHT_CLICK_FLAG>
     68e:	20 c0       	rjmp	.+64     	; 0x6d0 <App_GetImuGradient+0x17a>
			break;
		// head is turned around Z-axis
		case YAW:
		// enable flags so the signal can be sent again
			if(absolute_gradient[2] >= THRESHOLD_Z){RIGHT_CLICK_FLAG = ENABLED; RIGHT_CLICK_FLAG = ENABLED; return RIGHT; }
     690:	2a e0       	ldi	r18, 0x0A	; 10
     692:	c2 16       	cp	r12, r18
     694:	d1 04       	cpc	r13, r1
     696:	2c f0       	brlt	.+10     	; 0x6a2 <App_GetImuGradient+0x14c>
     698:	81 e0       	ldi	r24, 0x01	; 1
     69a:	80 93 63 00 	sts	0x0063, r24	; 0x800063 <RIGHT_CLICK_FLAG>
     69e:	83 e0       	ldi	r24, 0x03	; 3
     6a0:	17 c0       	rjmp	.+46     	; 0x6d0 <App_GetImuGradient+0x17a>
			else if ( (-1*absolute_gradient[2]) >= THRESHOLD_Z ){RIGHT_CLICK_FLAG = ENABLED; RIGHT_CLICK_FLAG = ENABLED; return LEFT; }
     6a2:	d1 94       	neg	r13
     6a4:	c1 94       	neg	r12
     6a6:	d1 08       	sbc	r13, r1
     6a8:	3a e0       	ldi	r19, 0x0A	; 10
     6aa:	c3 16       	cp	r12, r19
     6ac:	d1 04       	cpc	r13, r1
     6ae:	7c f0       	brlt	.+30     	; 0x6ce <App_GetImuGradient+0x178>
     6b0:	81 e0       	ldi	r24, 0x01	; 1
     6b2:	80 93 63 00 	sts	0x0063, r24	; 0x800063 <RIGHT_CLICK_FLAG>
     6b6:	82 e0       	ldi	r24, 0x02	; 2
     6b8:	0b c0       	rjmp	.+22     	; 0x6d0 <App_GetImuGradient+0x17a>
			break;
	}
	//-- no head motion 
	return NOTHING;
     6ba:	8f ef       	ldi	r24, 0xFF	; 255
     6bc:	09 c0       	rjmp	.+18     	; 0x6d0 <App_GetImuGradient+0x17a>
				if (absolute_gradient[angle_name] < 25)
				{
					return RIGHT_CLICK;
				}
				// larger angle -> double right click
				 return DOUBLE_RIGHT_CLICK;
     6be:	86 e0       	ldi	r24, 0x06	; 6
     6c0:	07 c0       	rjmp	.+14     	; 0x6d0 <App_GetImuGradient+0x17a>
			if(absolute_gradient[2] >= THRESHOLD_Z){RIGHT_CLICK_FLAG = ENABLED; RIGHT_CLICK_FLAG = ENABLED; return RIGHT; }
			else if ( (-1*absolute_gradient[2]) >= THRESHOLD_Z ){RIGHT_CLICK_FLAG = ENABLED; RIGHT_CLICK_FLAG = ENABLED; return LEFT; }
			break;
	}
	//-- no head motion 
	return NOTHING;
     6c2:	8f ef       	ldi	r24, 0xFF	; 255
     6c4:	05 c0       	rjmp	.+10     	; 0x6d0 <App_GetImuGradient+0x17a>
     6c6:	8f ef       	ldi	r24, 0xFF	; 255
     6c8:	03 c0       	rjmp	.+6      	; 0x6d0 <App_GetImuGradient+0x17a>
     6ca:	8f ef       	ldi	r24, 0xFF	; 255
     6cc:	01 c0       	rjmp	.+2      	; 0x6d0 <App_GetImuGradient+0x17a>
     6ce:	8f ef       	ldi	r24, 0xFF	; 255
}
     6d0:	26 96       	adiw	r28, 0x06	; 6
     6d2:	0f b6       	in	r0, 0x3f	; 63
     6d4:	f8 94       	cli
     6d6:	de bf       	out	0x3e, r29	; 62
     6d8:	0f be       	out	0x3f, r0	; 63
     6da:	cd bf       	out	0x3d, r28	; 61
     6dc:	df 91       	pop	r29
     6de:	cf 91       	pop	r28
     6e0:	1f 91       	pop	r17
     6e2:	0f 91       	pop	r16
     6e4:	ff 90       	pop	r15
     6e6:	ef 90       	pop	r14
     6e8:	df 90       	pop	r13
     6ea:	cf 90       	pop	r12
     6ec:	08 95       	ret

000006ee <BNO055_WriteByte>:
	  BNO055_SetMagOffsets(bias.MAG_OFFSET);
	  BNO055_SetMagRadius(bias.MAG_RADIUS);
	  BNO055_SetAccRadius(bias.ACCEL_RADIUS);
	  BNO055_WriteByte(BNO055_ADDRESS, BNO055_OPR_MODE, NDOF);
	  
}
     6ee:	1f 93       	push	r17
     6f0:	cf 93       	push	r28
     6f2:	df 93       	push	r29
     6f4:	c8 2f       	mov	r28, r24
     6f6:	16 2f       	mov	r17, r22
     6f8:	d4 2f       	mov	r29, r20
     6fa:	0e 94 6c 06 	call	0xcd8	; 0xcd8 <I2C_Master_Start>
     6fe:	81 2f       	mov	r24, r17
     700:	0e 94 94 06 	call	0xd28	; 0xd28 <I2C_Master_Write>
     704:	8d 2f       	mov	r24, r29
     706:	0e 94 94 06 	call	0xd28	; 0xd28 <I2C_Master_Write>
     70a:	8c 2f       	mov	r24, r28
     70c:	0e 94 aa 06 	call	0xd54	; 0xd54 <I2C_Repeated_Start>
     710:	df 91       	pop	r29
     712:	cf 91       	pop	r28
     714:	1f 91       	pop	r17
     716:	08 95       	ret

00000718 <BNO055_ReadByte>:
     718:	cf 93       	push	r28
     71a:	df 93       	push	r29
     71c:	c8 2f       	mov	r28, r24
     71e:	d6 2f       	mov	r29, r22
     720:	0e 94 6c 06 	call	0xcd8	; 0xcd8 <I2C_Master_Start>
     724:	8d 2f       	mov	r24, r29
     726:	0e 94 94 06 	call	0xd28	; 0xd28 <I2C_Master_Write>
     72a:	8c 2f       	mov	r24, r28
     72c:	0e 94 aa 06 	call	0xd54	; 0xd54 <I2C_Repeated_Start>
     730:	0e 94 d2 06 	call	0xda4	; 0xda4 <I2C_Read_Ack>
     734:	df 91       	pop	r29
     736:	cf 91       	pop	r28
     738:	08 95       	ret

0000073a <BNO055_ReadBytes>:
     73a:	ef 92       	push	r14
     73c:	ff 92       	push	r15
     73e:	0f 93       	push	r16
     740:	1f 93       	push	r17
     742:	cf 93       	push	r28
     744:	df 93       	push	r29
     746:	c8 2f       	mov	r28, r24
     748:	16 2f       	mov	r17, r22
     74a:	d4 2f       	mov	r29, r20
     74c:	79 01       	movw	r14, r18
     74e:	0e 94 6c 06 	call	0xcd8	; 0xcd8 <I2C_Master_Start>
     752:	81 2f       	mov	r24, r17
     754:	0e 94 94 06 	call	0xd28	; 0xd28 <I2C_Master_Write>
     758:	8c 2f       	mov	r24, r28
     75a:	0e 94 aa 06 	call	0xd54	; 0xd54 <I2C_Repeated_Start>
     75e:	c0 e0       	ldi	r28, 0x00	; 0
     760:	08 c0       	rjmp	.+16     	; 0x772 <BNO055_ReadBytes+0x38>
     762:	87 01       	movw	r16, r14
     764:	0c 0f       	add	r16, r28
     766:	11 1d       	adc	r17, r1
     768:	0e 94 d2 06 	call	0xda4	; 0xda4 <I2C_Read_Ack>
     76c:	f8 01       	movw	r30, r16
     76e:	80 83       	st	Z, r24
     770:	cf 5f       	subi	r28, 0xFF	; 255
     772:	cd 17       	cp	r28, r29
     774:	b0 f3       	brcs	.-20     	; 0x762 <BNO055_ReadBytes+0x28>
     776:	c7 01       	movw	r24, r14
     778:	8d 0f       	add	r24, r29
     77a:	91 1d       	adc	r25, r1
     77c:	ec 01       	movw	r28, r24
     77e:	0e 94 e0 06 	call	0xdc0	; 0xdc0 <I2C_Read_Nack>
     782:	88 83       	st	Y, r24
     784:	df 91       	pop	r29
     786:	cf 91       	pop	r28
     788:	1f 91       	pop	r17
     78a:	0f 91       	pop	r16
     78c:	ff 90       	pop	r15
     78e:	ef 90       	pop	r14
     790:	08 95       	ret

00000792 <BNO055_GetCalibStat>:
     792:	cf 93       	push	r28
     794:	c8 2f       	mov	r28, r24
     796:	65 e3       	ldi	r22, 0x35	; 53
     798:	88 e2       	ldi	r24, 0x28	; 40
     79a:	0e 94 8c 03 	call	0x718	; 0x718 <BNO055_ReadByte>
     79e:	c1 11       	cpse	r28, r1
     7a0:	05 c0       	rjmp	.+10     	; 0x7ac <BNO055_GetCalibStat+0x1a>
     7a2:	82 95       	swap	r24
     7a4:	86 95       	lsr	r24
     7a6:	86 95       	lsr	r24
     7a8:	83 70       	andi	r24, 0x03	; 3
     7aa:	11 c0       	rjmp	.+34     	; 0x7ce <BNO055_GetCalibStat+0x3c>
     7ac:	c1 30       	cpi	r28, 0x01	; 1
     7ae:	21 f4       	brne	.+8      	; 0x7b8 <BNO055_GetCalibStat+0x26>
     7b0:	80 73       	andi	r24, 0x30	; 48
     7b2:	82 95       	swap	r24
     7b4:	8f 70       	andi	r24, 0x0F	; 15
     7b6:	0b c0       	rjmp	.+22     	; 0x7ce <BNO055_GetCalibStat+0x3c>
     7b8:	c2 30       	cpi	r28, 0x02	; 2
     7ba:	21 f4       	brne	.+8      	; 0x7c4 <BNO055_GetCalibStat+0x32>
     7bc:	8c 70       	andi	r24, 0x0C	; 12
     7be:	86 95       	lsr	r24
     7c0:	86 95       	lsr	r24
     7c2:	05 c0       	rjmp	.+10     	; 0x7ce <BNO055_GetCalibStat+0x3c>
     7c4:	c3 30       	cpi	r28, 0x03	; 3
     7c6:	11 f4       	brne	.+4      	; 0x7cc <BNO055_GetCalibStat+0x3a>
     7c8:	83 70       	andi	r24, 0x03	; 3
     7ca:	01 c0       	rjmp	.+2      	; 0x7ce <BNO055_GetCalibStat+0x3c>
     7cc:	80 e0       	ldi	r24, 0x00	; 0
     7ce:	cf 91       	pop	r28
     7d0:	08 95       	ret

000007d2 <BNO055_ReadEulerAngles>:
     7d2:	0f 93       	push	r16
     7d4:	1f 93       	push	r17
     7d6:	cf 93       	push	r28
     7d8:	df 93       	push	r29
     7da:	00 d0       	rcall	.+0      	; 0x7dc <BNO055_ReadEulerAngles+0xa>
     7dc:	00 d0       	rcall	.+0      	; 0x7de <BNO055_ReadEulerAngles+0xc>
     7de:	00 d0       	rcall	.+0      	; 0x7e0 <BNO055_ReadEulerAngles+0xe>
     7e0:	cd b7       	in	r28, 0x3d	; 61
     7e2:	de b7       	in	r29, 0x3e	; 62
     7e4:	8c 01       	movw	r16, r24
     7e6:	9e 01       	movw	r18, r28
     7e8:	2f 5f       	subi	r18, 0xFF	; 255
     7ea:	3f 4f       	sbci	r19, 0xFF	; 255
     7ec:	46 e0       	ldi	r20, 0x06	; 6
     7ee:	6a e1       	ldi	r22, 0x1A	; 26
     7f0:	88 e2       	ldi	r24, 0x28	; 40
     7f2:	0e 94 9d 03 	call	0x73a	; 0x73a <BNO055_ReadBytes>
     7f6:	8a 81       	ldd	r24, Y+2	; 0x02
     7f8:	90 e0       	ldi	r25, 0x00	; 0
     7fa:	98 2f       	mov	r25, r24
     7fc:	88 27       	eor	r24, r24
     7fe:	29 81       	ldd	r18, Y+1	; 0x01
     800:	82 2b       	or	r24, r18
     802:	f8 01       	movw	r30, r16
     804:	91 83       	std	Z+1, r25	; 0x01
     806:	80 83       	st	Z, r24
     808:	8c 81       	ldd	r24, Y+4	; 0x04
     80a:	90 e0       	ldi	r25, 0x00	; 0
     80c:	98 2f       	mov	r25, r24
     80e:	88 27       	eor	r24, r24
     810:	2b 81       	ldd	r18, Y+3	; 0x03
     812:	82 2b       	or	r24, r18
     814:	93 83       	std	Z+3, r25	; 0x03
     816:	82 83       	std	Z+2, r24	; 0x02
     818:	8e 81       	ldd	r24, Y+6	; 0x06
     81a:	90 e0       	ldi	r25, 0x00	; 0
     81c:	98 2f       	mov	r25, r24
     81e:	88 27       	eor	r24, r24
     820:	2d 81       	ldd	r18, Y+5	; 0x05
     822:	82 2b       	or	r24, r18
     824:	95 83       	std	Z+5, r25	; 0x05
     826:	84 83       	std	Z+4, r24	; 0x04
     828:	26 96       	adiw	r28, 0x06	; 6
     82a:	0f b6       	in	r0, 0x3f	; 63
     82c:	f8 94       	cli
     82e:	de bf       	out	0x3e, r29	; 62
     830:	0f be       	out	0x3f, r0	; 63
     832:	cd bf       	out	0x3d, r28	; 61
     834:	df 91       	pop	r29
     836:	cf 91       	pop	r28
     838:	1f 91       	pop	r17
     83a:	0f 91       	pop	r16
     83c:	08 95       	ret

0000083e <BNO055_SelfTest>:
*Function to Test the sensors see if they fail in hardware or not
*return EN_FAIL_t of the failed sensor (see BNO055.h for definition)
*		return 
*/
EN_FAIL_t BNO055_SelfTest(){
	u8_t selftest = BNO055_ReadByte(BNO055_ADDRESS, BNO055_ST_RESULT);	
     83e:	66 e3       	ldi	r22, 0x36	; 54
     840:	88 e2       	ldi	r24, 0x28	; 40
     842:	0e 94 8c 03 	call	0x718	; 0x718 <BNO055_ReadByte>
	if(!(selftest & 0x01)) {
     846:	80 ff       	sbrs	r24, 0
     848:	08 c0       	rjmp	.+16     	; 0x85a <BNO055_SelfTest+0x1c>

		return ACCELOMETER_FAIL;                /*acc fails*/
	}
	if(!(selftest & 0x02)) {
     84a:	81 ff       	sbrs	r24, 1
     84c:	08 c0       	rjmp	.+16     	; 0x85e <BNO055_SelfTest+0x20>
		return MAGNETOMETER_FAIL;               /*magnetometer fails*/
	}
	if(!(selftest & 0x04)) {
     84e:	82 ff       	sbrs	r24, 2
     850:	08 c0       	rjmp	.+16     	; 0x862 <__stack+0x3>
		return GYROSCOPE_FAIL;              /*gyroscope fails*/
	}
	if(!(selftest & 0x08)) {
     852:	83 fd       	sbrc	r24, 3
     854:	08 c0       	rjmp	.+16     	; 0x866 <__stack+0x7>
		return SYSTEM_FAIL;              /*system fails*/
     856:	88 e0       	ldi	r24, 0x08	; 8
     858:	08 95       	ret
*/
EN_FAIL_t BNO055_SelfTest(){
	u8_t selftest = BNO055_ReadByte(BNO055_ADDRESS, BNO055_ST_RESULT);	
	if(!(selftest & 0x01)) {

		return ACCELOMETER_FAIL;                /*acc fails*/
     85a:	85 e0       	ldi	r24, 0x05	; 5
     85c:	08 95       	ret
	}
	if(!(selftest & 0x02)) {
		return MAGNETOMETER_FAIL;               /*magnetometer fails*/
     85e:	86 e0       	ldi	r24, 0x06	; 6
     860:	08 95       	ret
	}
	if(!(selftest & 0x04)) {
		return GYROSCOPE_FAIL;              /*gyroscope fails*/
     862:	87 e0       	ldi	r24, 0x07	; 7
     864:	08 95       	ret
	}
	if(!(selftest & 0x08)) {
		return SYSTEM_FAIL;              /*system fails*/
	}

	return BNO055_SUCCESS;
     866:	89 e0       	ldi	r24, 0x09	; 9
}
     868:	08 95       	ret

0000086a <BNO055_Init>:
*to speed up calibration process you can use GetOffsets and Get Radius functions and SetCalibProfile
*Functions to store calibrated offsets after every boot 
*
*/
EN_FAIL_t BNO055_Init()
{	
     86a:	cf 93       	push	r28
	I2C_Init(OPERATION_FREQ,100000);					/*initialize i2c with frequency 100Khz*/
     86c:	40 ea       	ldi	r20, 0xA0	; 160
     86e:	56 e8       	ldi	r21, 0x86	; 134
     870:	61 e0       	ldi	r22, 0x01	; 1
     872:	70 e0       	ldi	r23, 0x00	; 0
     874:	84 e0       	ldi	r24, 0x04	; 4
     876:	0e 94 f2 05 	call	0xbe4	; 0xbe4 <I2C_Init>
	BNO055_WriteByte(BNO055_ADDRESS, BNO055_OPR_MODE, CONFIGMODE );
     87a:	40 e0       	ldi	r20, 0x00	; 0
     87c:	6d e3       	ldi	r22, 0x3D	; 61
     87e:	88 e2       	ldi	r24, 0x28	; 40
     880:	0e 94 77 03 	call	0x6ee	; 0x6ee <BNO055_WriteByte>
	// Select page 1 to configure sensors
	BNO055_WriteByte(BNO055_ADDRESS, BNO055_PAGE_ID, PAGE_1);
     884:	41 e0       	ldi	r20, 0x01	; 1
     886:	67 e0       	ldi	r22, 0x07	; 7
     888:	88 e2       	ldi	r24, 0x28	; 40
     88a:	0e 94 77 03 	call	0x6ee	; 0x6ee <BNO055_WriteByte>
	// Configure ACC
	BNO055_WriteByte(BNO055_ADDRESS, BNO055_ACC_CONFIG, ACC_CONFIGS );
     88e:	48 e0       	ldi	r20, 0x08	; 8
     890:	68 e0       	ldi	r22, 0x08	; 8
     892:	88 e2       	ldi	r24, 0x28	; 40
     894:	0e 94 77 03 	call	0x6ee	; 0x6ee <BNO055_WriteByte>
	// Configure GYR
	BNO055_WriteByte(BNO055_ADDRESS, BNO055_GYRO_CONFIG_0, GYRO_BW_RANGE );
     898:	43 e2       	ldi	r20, 0x23	; 35
     89a:	6a e0       	ldi	r22, 0x0A	; 10
     89c:	88 e2       	ldi	r24, 0x28	; 40
     89e:	0e 94 77 03 	call	0x6ee	; 0x6ee <BNO055_WriteByte>
	BNO055_WriteByte(BNO055_ADDRESS, BNO055_GYRO_CONFIG_1, GYRO_POWER_MODE);
     8a2:	40 e0       	ldi	r20, 0x00	; 0
     8a4:	6b e0       	ldi	r22, 0x0B	; 11
     8a6:	88 e2       	ldi	r24, 0x28	; 40
     8a8:	0e 94 77 03 	call	0x6ee	; 0x6ee <BNO055_WriteByte>
	// Configure MAG
	BNO055_WriteByte(BNO055_ADDRESS, BNO055_MAG_CONFIG, MAG_CONFIGS );
     8ac:	4b e0       	ldi	r20, 0x0B	; 11
     8ae:	69 e0       	ldi	r22, 0x09	; 9
     8b0:	88 e2       	ldi	r24, 0x28	; 40
     8b2:	0e 94 77 03 	call	0x6ee	; 0x6ee <BNO055_WriteByte>
	// Select page 0 to read sensors
	BNO055_WriteByte(BNO055_ADDRESS, BNO055_PAGE_ID, PAGE_0);
     8b6:	40 e0       	ldi	r20, 0x00	; 0
     8b8:	67 e0       	ldi	r22, 0x07	; 7
     8ba:	88 e2       	ldi	r24, 0x28	; 40
     8bc:	0e 94 77 03 	call	0x6ee	; 0x6ee <BNO055_WriteByte>
	// Select BNO055 gyro temperature source
	BNO055_WriteByte(BNO055_ADDRESS, BNO055_TEMP_SOURCE, 0x01 );
     8c0:	41 e0       	ldi	r20, 0x01	; 1
     8c2:	60 e4       	ldi	r22, 0x40	; 64
     8c4:	88 e2       	ldi	r24, 0x28	; 40
     8c6:	0e 94 77 03 	call	0x6ee	; 0x6ee <BNO055_WriteByte>
	// Select BNO055 sensor units (temperature in degrees C, rate in dps, accel in mg)
	BNO055_WriteByte(BNO055_ADDRESS, BNO055_UNIT_SEL, SYS_UNITS );
     8ca:	41 e0       	ldi	r20, 0x01	; 1
     8cc:	6b e3       	ldi	r22, 0x3B	; 59
     8ce:	88 e2       	ldi	r24, 0x28	; 40
     8d0:	0e 94 77 03 	call	0x6ee	; 0x6ee <BNO055_WriteByte>
	// Select BNO055 system power mode
	BNO055_WriteByte(BNO055_ADDRESS, BNO055_PWR_MODE, PWR_MODE );
     8d4:	40 e0       	ldi	r20, 0x00	; 0
     8d6:	6e e3       	ldi	r22, 0x3E	; 62
     8d8:	88 e2       	ldi	r24, 0x28	; 40
     8da:	0e 94 77 03 	call	0x6ee	; 0x6ee <BNO055_WriteByte>
	// Select BNO055 system operation mode
	BNO055_WriteByte(BNO055_ADDRESS, BNO055_OPR_MODE, OP_MODE  );
     8de:	4c e0       	ldi	r20, 0x0C	; 12
     8e0:	6d e3       	ldi	r22, 0x3D	; 61
     8e2:	88 e2       	ldi	r24, 0x28	; 40
     8e4:	0e 94 77 03 	call	0x6ee	; 0x6ee <BNO055_WriteByte>
	
	if (BNO055_SelfTest() != BNO055_SUCCESS){							/*if self test didn't pass on all sensors*/
     8e8:	0e 94 1f 04 	call	0x83e	; 0x83e <BNO055_SelfTest>
     8ec:	c8 2f       	mov	r28, r24
     8ee:	89 30       	cpi	r24, 0x09	; 9
     8f0:	21 f0       	breq	.+8      	; 0x8fa <BNO055_Init+0x90>
		return BNO055_SelfTest();
     8f2:	0e 94 1f 04 	call	0x83e	; 0x83e <BNO055_SelfTest>
     8f6:	c8 2f       	mov	r28, r24
     8f8:	0f c0       	rjmp	.+30     	; 0x918 <BNO055_Init+0xae>
	}
	while (1){
		if (BNO055_GetCalibStat(SYSTEM) > LOW_CALIBRATED && BNO055_GetCalibStat(GYROSCOPE) > LOW_CALIBRATED){
     8fa:	80 e0       	ldi	r24, 0x00	; 0
     8fc:	0e 94 c9 03 	call	0x792	; 0x792 <BNO055_GetCalibStat>
     900:	82 30       	cpi	r24, 0x02	; 2
     902:	d8 f3       	brcs	.-10     	; 0x8fa <BNO055_Init+0x90>
     904:	81 e0       	ldi	r24, 0x01	; 1
     906:	0e 94 c9 03 	call	0x792	; 0x792 <BNO055_GetCalibStat>
     90a:	82 30       	cpi	r24, 0x02	; 2
     90c:	b0 f3       	brcs	.-20     	; 0x8fa <BNO055_Init+0x90>
			if(BNO055_GetCalibStat(MAGNETOMETER) > LOW_CALIBRATED )
     90e:	83 e0       	ldi	r24, 0x03	; 3
     910:	0e 94 c9 03 	call	0x792	; 0x792 <BNO055_GetCalibStat>
     914:	82 30       	cpi	r24, 0x02	; 2
     916:	88 f3       	brcs	.-30     	; 0x8fa <BNO055_Init+0x90>
				break;
		}
	}
	return BNO055_SUCCESS;
}
     918:	8c 2f       	mov	r24, r28
     91a:	cf 91       	pop	r28
     91c:	08 95       	ret

0000091e <Delay_ms_independent>:
		time_us--;
	}
}

void Delay_ms_independent(u16_t time_ms)
{
     91e:	8f 92       	push	r8
     920:	9f 92       	push	r9
     922:	af 92       	push	r10
     924:	bf 92       	push	r11
     926:	cf 92       	push	r12
     928:	df 92       	push	r13
     92a:	ef 92       	push	r14
     92c:	ff 92       	push	r15
     92e:	0f 93       	push	r16
	u32_t num_of_ticks = time_ms;
	num_of_ticks = num_of_ticks*1000/3;
     930:	9c 01       	movw	r18, r24
     932:	a8 ee       	ldi	r26, 0xE8	; 232
     934:	b3 e0       	ldi	r27, 0x03	; 3
     936:	0e 94 1f 0c 	call	0x183e	; 0x183e <__umulhisi3>
     93a:	2b ea       	ldi	r18, 0xAB	; 171
     93c:	3a ea       	ldi	r19, 0xAA	; 170
     93e:	4a ea       	ldi	r20, 0xAA	; 170
     940:	5a ea       	ldi	r21, 0xAA	; 170
     942:	0e 94 2e 0c 	call	0x185c	; 0x185c <__umulsidi3>
     946:	00 e2       	ldi	r16, 0x20	; 32
     948:	0e 94 5b 0c 	call	0x18b6	; 0x18b6 <__lshrdi3>
     94c:	82 2e       	mov	r8, r18
     94e:	93 2e       	mov	r9, r19
     950:	a4 2e       	mov	r10, r20
     952:	b5 2e       	mov	r11, r21
     954:	b6 94       	lsr	r11
     956:	a7 94       	ror	r10
     958:	97 94       	ror	r9
     95a:	87 94       	ror	r8
	while (num_of_ticks)
     95c:	05 c0       	rjmp	.+10     	; 0x968 <Delay_ms_independent+0x4a>
	{
		num_of_ticks--;
     95e:	81 e0       	ldi	r24, 0x01	; 1
     960:	88 1a       	sub	r8, r24
     962:	91 08       	sbc	r9, r1
     964:	a1 08       	sbc	r10, r1
     966:	b1 08       	sbc	r11, r1

void Delay_ms_independent(u16_t time_ms)
{
	u32_t num_of_ticks = time_ms;
	num_of_ticks = num_of_ticks*1000/3;
	while (num_of_ticks)
     968:	81 14       	cp	r8, r1
     96a:	91 04       	cpc	r9, r1
     96c:	a1 04       	cpc	r10, r1
     96e:	b1 04       	cpc	r11, r1
     970:	b1 f7       	brne	.-20     	; 0x95e <Delay_ms_independent+0x40>
	{
		num_of_ticks--;
	}
     972:	0f 91       	pop	r16
     974:	ff 90       	pop	r15
     976:	ef 90       	pop	r14
     978:	df 90       	pop	r13
     97a:	cf 90       	pop	r12
     97c:	bf 90       	pop	r11
     97e:	af 90       	pop	r10
     980:	9f 90       	pop	r9
     982:	8f 90       	pop	r8
     984:	08 95       	ret

00000986 <LED_Init>:
#include "LED_interface.h"


void LED_Init(u8_t copy_u8Port , u8_t copy_u8Pin)
{
	DIO_setPinDir(copy_u8Port ,copy_u8Pin, OUT );	
     986:	41 e0       	ldi	r20, 0x01	; 1
     988:	0e 94 8c 05 	call	0xb18	; 0xb18 <DIO_setPinDir>
     98c:	08 95       	ret

0000098e <LED_TurnOn>:
}


void LED_TurnOn(u8_t copy_u8Port , u8_t copy_u8Pin)
{
	DIO_setPin( copy_u8Port , copy_u8Pin);
     98e:	0e 94 cb 05 	call	0xb96	; 0xb96 <DIO_setPin>
     992:	08 95       	ret

00000994 <LED_TurnOff>:
}


void LED_TurnOff(u8_t copy_u8Port , u8_t copy_u8Pin)
{
     DIO_clearPin(copy_u8Port , copy_u8Pin);
     994:	0e 94 d8 05 	call	0xbb0	; 0xbb0 <DIO_clearPin>
     998:	08 95       	ret

0000099a <advanceCircleByFixedAngle>:
void advanceCircleByFixedAngle(void)
{
	char    d;

	#define DIVIDE_BY_64(val)  (val + (val > 0 ? 32 : -32)) >> 6    /* rounding divide */
	reportBuffer.dx = d = DIVIDE_BY_64(cosinus);
     99a:	40 91 6a 00 	lds	r20, 0x006A	; 0x80006a <__data_end>
     99e:	50 91 6b 00 	lds	r21, 0x006B	; 0x80006b <__data_end+0x1>
     9a2:	14 16       	cp	r1, r20
     9a4:	15 06       	cpc	r1, r21
     9a6:	1c f4       	brge	.+6      	; 0x9ae <advanceCircleByFixedAngle+0x14>
     9a8:	20 e2       	ldi	r18, 0x20	; 32
     9aa:	30 e0       	ldi	r19, 0x00	; 0
     9ac:	02 c0       	rjmp	.+4      	; 0x9b2 <advanceCircleByFixedAngle+0x18>
     9ae:	20 ee       	ldi	r18, 0xE0	; 224
     9b0:	3f ef       	ldi	r19, 0xFF	; 255
     9b2:	24 0f       	add	r18, r20
     9b4:	35 1f       	adc	r19, r21
     9b6:	02 2e       	mov	r0, r18
     9b8:	23 2f       	mov	r18, r19
     9ba:	00 0c       	add	r0, r0
     9bc:	22 1f       	adc	r18, r18
     9be:	33 0b       	sbc	r19, r19
     9c0:	00 0c       	add	r0, r0
     9c2:	22 1f       	adc	r18, r18
     9c4:	33 1f       	adc	r19, r19
     9c6:	20 93 7b 00 	sts	0x007B, r18	; 0x80007b <reportBuffer+0x1>
	sinus += d;
     9ca:	80 91 66 00 	lds	r24, 0x0066	; 0x800066 <sinus>
     9ce:	90 91 67 00 	lds	r25, 0x0067	; 0x800067 <sinus+0x1>
     9d2:	82 0f       	add	r24, r18
     9d4:	91 1d       	adc	r25, r1
     9d6:	90 93 67 00 	sts	0x0067, r25	; 0x800067 <sinus+0x1>
     9da:	80 93 66 00 	sts	0x0066, r24	; 0x800066 <sinus>
	reportBuffer.dy = d = DIVIDE_BY_64(sinus);
     9de:	18 16       	cp	r1, r24
     9e0:	19 06       	cpc	r1, r25
     9e2:	1c f4       	brge	.+6      	; 0x9ea <advanceCircleByFixedAngle+0x50>
     9e4:	20 e2       	ldi	r18, 0x20	; 32
     9e6:	30 e0       	ldi	r19, 0x00	; 0
     9e8:	02 c0       	rjmp	.+4      	; 0x9ee <advanceCircleByFixedAngle+0x54>
     9ea:	20 ee       	ldi	r18, 0xE0	; 224
     9ec:	3f ef       	ldi	r19, 0xFF	; 255
     9ee:	82 0f       	add	r24, r18
     9f0:	93 1f       	adc	r25, r19
     9f2:	08 2e       	mov	r0, r24
     9f4:	89 2f       	mov	r24, r25
     9f6:	00 0c       	add	r0, r0
     9f8:	88 1f       	adc	r24, r24
     9fa:	99 0b       	sbc	r25, r25
     9fc:	00 0c       	add	r0, r0
     9fe:	88 1f       	adc	r24, r24
     a00:	99 1f       	adc	r25, r25
     a02:	80 93 7c 00 	sts	0x007C, r24	; 0x80007c <reportBuffer+0x2>
	cosinus -= d;
     a06:	48 1b       	sub	r20, r24
     a08:	51 09       	sbc	r21, r1
     a0a:	50 93 6b 00 	sts	0x006B, r21	; 0x80006b <__data_end+0x1>
     a0e:	40 93 6a 00 	sts	0x006A, r20	; 0x80006a <__data_end>
     a12:	08 95       	ret

00000a14 <usbFunctionSetup>:
}

usbMsgLen_t usbFunctionSetup(uchar data[8])
{
     a14:	fc 01       	movw	r30, r24
usbRequest_t    *rq = (void *)data;

    /* The following requests are never used. But since they are required by
     * the specification, we implement them in this example.
     */
    if((rq->bmRequestType & USBRQ_TYPE_MASK) == USBRQ_TYPE_CLASS){    /* class request type */
     a16:	90 81       	ld	r25, Z
     a18:	90 76       	andi	r25, 0x60	; 96
     a1a:	90 32       	cpi	r25, 0x20	; 32
     a1c:	e1 f4       	brne	.+56     	; 0xa56 <usbFunctionSetup+0x42>
        DBG1(0x50, &rq->bRequest, 1);   /* debug output: print our request */
        if(rq->bRequest == USBRQ_HID_GET_REPORT){  /* wValue: ReportType (highbyte), ReportID (lowbyte) */
     a1e:	81 81       	ldd	r24, Z+1	; 0x01
     a20:	81 30       	cpi	r24, 0x01	; 1
     a22:	41 f4       	brne	.+16     	; 0xa34 <usbFunctionSetup+0x20>
            /* we only have one report type, so don't look at wValue */
            usbMsgPtr = (void *)&reportBuffer;
     a24:	8a e7       	ldi	r24, 0x7A	; 122
     a26:	90 e0       	ldi	r25, 0x00	; 0
     a28:	90 93 99 00 	sts	0x0099, r25	; 0x800099 <usbMsgPtr+0x1>
     a2c:	80 93 98 00 	sts	0x0098, r24	; 0x800098 <usbMsgPtr>
            return sizeof(reportBuffer);
     a30:	84 e0       	ldi	r24, 0x04	; 4
     a32:	08 95       	ret
        }else if(rq->bRequest == USBRQ_HID_GET_IDLE){
     a34:	82 30       	cpi	r24, 0x02	; 2
     a36:	41 f4       	brne	.+16     	; 0xa48 <usbFunctionSetup+0x34>
            usbMsgPtr = &idleRate;
     a38:	89 e7       	ldi	r24, 0x79	; 121
     a3a:	90 e0       	ldi	r25, 0x00	; 0
     a3c:	90 93 99 00 	sts	0x0099, r25	; 0x800099 <usbMsgPtr+0x1>
     a40:	80 93 98 00 	sts	0x0098, r24	; 0x800098 <usbMsgPtr>
            return 1;
     a44:	81 e0       	ldi	r24, 0x01	; 1
     a46:	08 95       	ret
        }else if(rq->bRequest == USBRQ_HID_SET_IDLE){
     a48:	8a 30       	cpi	r24, 0x0A	; 10
     a4a:	39 f4       	brne	.+14     	; 0xa5a <usbFunctionSetup+0x46>
            idleRate = rq->wValue.bytes[1];
     a4c:	83 81       	ldd	r24, Z+3	; 0x03
     a4e:	80 93 79 00 	sts	0x0079, r24	; 0x800079 <idleRate>
        }
    }else{
        /* no vendor specific requests implemented */
    }
    return 0;   /* default for not implemented requests: return no data back to host */
     a52:	80 e0       	ldi	r24, 0x00	; 0
     a54:	08 95       	ret
     a56:	80 e0       	ldi	r24, 0x00	; 0
     a58:	08 95       	ret
     a5a:	80 e0       	ldi	r24, 0x00	; 0
}
     a5c:	08 95       	ret

00000a5e <Mouse_init>:
__attribute__ ((__always_inline__))
void wdt_enable (const uint8_t value)
{
	if (_SFR_IO_REG_P (_WD_CONTROL_REG))
	{
		__asm__ __volatile__ (
     a5e:	9e e0       	ldi	r25, 0x0E	; 14
     a60:	88 e1       	ldi	r24, 0x18	; 24
     a62:	0f b6       	in	r0, 0x3f	; 63
     a64:	f8 94       	cli
     a66:	a8 95       	wdr
     a68:	81 bd       	out	0x21, r24	; 33
     a6a:	0f be       	out	0x3f, r0	; 63
     a6c:	91 bd       	out	0x21, r25	; 33
     * That's the way we need D+ and D-. Therefore we don't need any
     * additional hardware initialization.
     */
    odDebugInit();
    DBG1(0x00, 0, 0);       /* debug output: main starts */
    usbInit();
     a6e:	0e 94 36 08 	call	0x106c	; 0x106c <usbInit>
    usbDeviceDisconnect();  /* enforce re-enumeration, do this while interrupts are disabled! */
     a72:	81 b3       	in	r24, 0x11	; 17
     a74:	80 61       	ori	r24, 0x10	; 16
     a76:	81 bb       	out	0x11, r24	; 17
	
	 i = 0;
     a78:	80 e0       	ldi	r24, 0x00	; 0
	 while(--i){             /* fake USB disconnect for > 250 ms */
     a7a:	07 c0       	rjmp	.+14     	; 0xa8a <Mouse_init+0x2c>
	   wdt_reset();
     a7c:	a8 95       	wdr
	#else
		//round up by default
		__ticks_dc = (uint32_t)(ceil(fabs(__tmp)));
	#endif

	__builtin_avr_delay_cycles(__ticks_dc);
     a7e:	e7 eb       	ldi	r30, 0xB7	; 183
     a80:	fb e0       	ldi	r31, 0x0B	; 11
     a82:	31 97       	sbiw	r30, 0x01	; 1
     a84:	f1 f7       	brne	.-4      	; 0xa82 <Mouse_init+0x24>
     a86:	00 c0       	rjmp	.+0      	; 0xa88 <Mouse_init+0x2a>
     a88:	00 00       	nop
    DBG1(0x00, 0, 0);       /* debug output: main starts */
    usbInit();
    usbDeviceDisconnect();  /* enforce re-enumeration, do this while interrupts are disabled! */
	
	 i = 0;
	 while(--i){             /* fake USB disconnect for > 250 ms */
     a8a:	81 50       	subi	r24, 0x01	; 1
     a8c:	b9 f7       	brne	.-18     	; 0xa7c <Mouse_init+0x1e>
	   wdt_reset();
	  _delay_ms(1);
	  }
	 usbDeviceConnect();
     a8e:	81 b3       	in	r24, 0x11	; 17
     a90:	8f 7e       	andi	r24, 0xEF	; 239
     a92:	81 bb       	out	0x11, r24	; 17
	 sei();
     a94:	78 94       	sei
     a96:	08 95       	ret

00000a98 <Mouse_MoveLeft>:
	 DBG1(0x01, 0, 0);       /* debug output: main loop starts */
	
}
void Mouse_MoveLeft(void) {
	reportBuffer.dx = -1 ;
     a98:	8f ef       	ldi	r24, 0xFF	; 255
     a9a:	80 93 7b 00 	sts	0x007B, r24	; 0x80007b <reportBuffer+0x1>
     a9e:	08 95       	ret

00000aa0 <Mouse_MoveRight>:
}
void Mouse_MoveRight(void) {
	reportBuffer.dx = 1 ; 
     aa0:	81 e0       	ldi	r24, 0x01	; 1
     aa2:	80 93 7b 00 	sts	0x007B, r24	; 0x80007b <reportBuffer+0x1>
     aa6:	08 95       	ret

00000aa8 <Mouse_MoveUp>:
}
void Mouse_MoveUp(void) {
	reportBuffer.dy = -1 ; 
     aa8:	8f ef       	ldi	r24, 0xFF	; 255
     aaa:	80 93 7c 00 	sts	0x007C, r24	; 0x80007c <reportBuffer+0x2>
     aae:	08 95       	ret

00000ab0 <Mouse_MoveDown>:
}
void Mouse_MoveDown(void) {
	reportBuffer.dy = 1 ;
     ab0:	81 e0       	ldi	r24, 0x01	; 1
     ab2:	80 93 7c 00 	sts	0x007C, r24	; 0x80007c <reportBuffer+0x2>
     ab6:	08 95       	ret

00000ab8 <Mouse_RightClick>:
}
void Mouse_RightClick(void) {
	reportBuffer.buttonMask = 1 ; 
     ab8:	81 e0       	ldi	r24, 0x01	; 1
     aba:	80 93 7a 00 	sts	0x007A, r24	; 0x80007a <reportBuffer>
     abe:	08 95       	ret

00000ac0 <Mouse_LeftClick>:
}
void Mouse_LeftClick(void) {
	reportBuffer.buttonMask = 2 ;
     ac0:	82 e0       	ldi	r24, 0x02	; 2
     ac2:	80 93 7a 00 	sts	0x007A, r24	; 0x80007a <reportBuffer>
     ac6:	08 95       	ret

00000ac8 <Touch_Init>:
*inputs: ST_TouchConfig_t configuaration struct in touch.h
*EX :	 ST_TouchConfig_t TouchConfig = {PORTA,PIN0};
		 Touch_Init(TouchConfig);
**/
void Touch_Init(ST_TouchConfig_t config){
	DIO_setPinDir(config.TOUCH_PORT,config.TOUCH_PIN,IN);
     ac8:	40 e0       	ldi	r20, 0x00	; 0
     aca:	69 2f       	mov	r22, r25
     acc:	0e 94 8c 05 	call	0xb18	; 0xb18 <DIO_setPinDir>
     ad0:	08 95       	ret

00000ad2 <Touch_Read>:
*inputs: ST_TouchConfig_t configuaration struct in touch.h
*Return 1 if pressed , 0 otherwise
*
*/
u8_t Touch_Read(ST_TouchConfig_t config){
	return DIO_getPin(config.TOUCH_PORT,config.TOUCH_PIN);
     ad2:	69 2f       	mov	r22, r25
     ad4:	0e 94 e6 05 	call	0xbcc	; 0xbcc <DIO_getPin>
     ad8:	08 95       	ret

00000ada <main>:

int main()
{
	u8_t key = OPENED;
	/* Init application */
	App_Init();
     ada:	0e 94 29 02 	call	0x452	; 0x452 <App_Init>
#define OPENED  1
#define CLOSED  0

int main()
{
	u8_t key = OPENED;
     ade:	c1 e0       	ldi	r28, 0x01	; 1
	
	while(1)
	{
		// Ensure usb is always up
		DBG1(0x02, 0, 0);   /* debug output: main loop iterates */
		wdt_reset();
     ae0:	a8 95       	wdr
		usbPoll();
     ae2:	0e 94 3a 07 	call	0xe74	; 0xe74 <usbPoll>
		if(usbInterruptIsReady())
     ae6:	80 91 89 00 	lds	r24, 0x0089	; 0x800089 <usbTxStatus1>
     aea:	84 ff       	sbrs	r24, 4
     aec:	07 c0       	rjmp	.+14     	; 0xafc <main+0x22>
		{
		/* called after every poll of the interrupt endpoint */
	    advanceCircleByFixedAngle();
     aee:	0e 94 cd 04 	call	0x99a	; 0x99a <advanceCircleByFixedAngle>
	    DBG1(0x03, 0, 0);   /* debug output: interrupt report prepared */
	    usbSetInterrupt((void *)&reportBuffer, sizeof(reportBuffer));
     af2:	64 e0       	ldi	r22, 0x04	; 4
     af4:	8a e7       	ldi	r24, 0x7A	; 122
     af6:	90 e0       	ldi	r25, 0x00	; 0
     af8:	0e 94 35 07 	call	0xe6a	; 0xe6a <usbSetInterrupt>
		}
		//------------------------------------------
		// START LOGIC
		/* Check touch sensor state */
		u8_t state = App_GetTouchSensorState();
     afc:	0e 94 64 02 	call	0x4c8	; 0x4c8 <App_GetTouchSensorState>
		
		if(state == CONTACT)
     b00:	81 30       	cpi	r24, 0x01	; 1
     b02:	71 f7       	brne	.-36     	; 0xae0 <main+0x6>
		{
			// enter this block once to get the reference point
			if(key == OPENED)
     b04:	c1 30       	cpi	r28, 0x01	; 1
     b06:	19 f4       	brne	.+6      	; 0xb0e <main+0x34>
			{
				// Get reference point from imu
				App_GetImuCalibPoint();
     b08:	0e 94 80 02 	call	0x500	; 0x500 <App_GetImuCalibPoint>
				key = CLOSED;
     b0c:	c0 e0       	ldi	r28, 0x00	; 0
			
			}
			
			// Get current gradient of imu (required mouse motion direction)
			u8_t motion_direction = App_GetImuGradient();
     b0e:	0e 94 ab 02 	call	0x556	; 0x556 <App_GetImuGradient>
			// move mouse
			App_OrderMouse(motion_direction);
     b12:	0e 94 40 02 	call	0x480	; 0x480 <App_OrderMouse>
     b16:	e4 cf       	rjmp	.-56     	; 0xae0 <main+0x6>

00000b18 <DIO_setPinDir>:
* this example set the first 4 bits to 0xF HIGH and the last 4 bits to 0x0 LOW
* void return.
*/
void DIO_writePort(EN_PORTS_t port,u8_t bin_pins)
{
	REG(port)=bin_pins;
     b18:	41 30       	cpi	r20, 0x01	; 1
     b1a:	69 f4       	brne	.+26     	; 0xb36 <DIO_setPinDir+0x1e>
     b1c:	e8 2f       	mov	r30, r24
     b1e:	f0 e0       	ldi	r31, 0x00	; 0
     b20:	22 91       	ld	r18, -Z
     b22:	81 e0       	ldi	r24, 0x01	; 1
     b24:	90 e0       	ldi	r25, 0x00	; 0
     b26:	02 c0       	rjmp	.+4      	; 0xb2c <DIO_setPinDir+0x14>
     b28:	88 0f       	add	r24, r24
     b2a:	99 1f       	adc	r25, r25
     b2c:	6a 95       	dec	r22
     b2e:	e2 f7       	brpl	.-8      	; 0xb28 <DIO_setPinDir+0x10>
     b30:	82 2b       	or	r24, r18
     b32:	80 83       	st	Z, r24
     b34:	08 95       	ret
     b36:	41 11       	cpse	r20, r1
     b38:	16 c0       	rjmp	.+44     	; 0xb66 <DIO_setPinDir+0x4e>
     b3a:	e8 2f       	mov	r30, r24
     b3c:	f0 e0       	ldi	r31, 0x00	; 0
     b3e:	df 01       	movw	r26, r30
     b40:	2e 91       	ld	r18, -X
     b42:	81 e0       	ldi	r24, 0x01	; 1
     b44:	90 e0       	ldi	r25, 0x00	; 0
     b46:	02 c0       	rjmp	.+4      	; 0xb4c <DIO_setPinDir+0x34>
     b48:	88 0f       	add	r24, r24
     b4a:	99 1f       	adc	r25, r25
     b4c:	6a 95       	dec	r22
     b4e:	e2 f7       	brpl	.-8      	; 0xb48 <DIO_setPinDir+0x30>
     b50:	98 2f       	mov	r25, r24
     b52:	90 95       	com	r25
     b54:	92 23       	and	r25, r18
     b56:	9c 93       	st	X, r25
     b58:	90 b7       	in	r25, 0x30	; 48
     b5a:	94 60       	ori	r25, 0x04	; 4
     b5c:	90 bf       	out	0x30, r25	; 48
     b5e:	90 81       	ld	r25, Z
     b60:	89 2b       	or	r24, r25
     b62:	80 83       	st	Z, r24
     b64:	08 95       	ret
     b66:	42 30       	cpi	r20, 0x02	; 2
     b68:	a9 f4       	brne	.+42     	; 0xb94 <DIO_setPinDir+0x7c>
     b6a:	e8 2f       	mov	r30, r24
     b6c:	f0 e0       	ldi	r31, 0x00	; 0
     b6e:	df 01       	movw	r26, r30
     b70:	2e 91       	ld	r18, -X
     b72:	81 e0       	ldi	r24, 0x01	; 1
     b74:	90 e0       	ldi	r25, 0x00	; 0
     b76:	02 c0       	rjmp	.+4      	; 0xb7c <DIO_setPinDir+0x64>
     b78:	88 0f       	add	r24, r24
     b7a:	99 1f       	adc	r25, r25
     b7c:	6a 95       	dec	r22
     b7e:	e2 f7       	brpl	.-8      	; 0xb78 <DIO_setPinDir+0x60>
     b80:	98 2f       	mov	r25, r24
     b82:	90 95       	com	r25
     b84:	92 23       	and	r25, r18
     b86:	9c 93       	st	X, r25
     b88:	90 b7       	in	r25, 0x30	; 48
     b8a:	9b 7f       	andi	r25, 0xFB	; 251
     b8c:	90 bf       	out	0x30, r25	; 48
     b8e:	90 81       	ld	r25, Z
     b90:	89 2b       	or	r24, r25
     b92:	80 83       	st	Z, r24
     b94:	08 95       	ret

00000b96 <DIO_setPin>:
     b96:	e8 2f       	mov	r30, r24
     b98:	f0 e0       	ldi	r31, 0x00	; 0
     b9a:	80 81       	ld	r24, Z
     b9c:	21 e0       	ldi	r18, 0x01	; 1
     b9e:	30 e0       	ldi	r19, 0x00	; 0
     ba0:	02 c0       	rjmp	.+4      	; 0xba6 <DIO_setPin+0x10>
     ba2:	22 0f       	add	r18, r18
     ba4:	33 1f       	adc	r19, r19
     ba6:	6a 95       	dec	r22
     ba8:	e2 f7       	brpl	.-8      	; 0xba2 <DIO_setPin+0xc>
     baa:	28 2b       	or	r18, r24
     bac:	20 83       	st	Z, r18
     bae:	08 95       	ret

00000bb0 <DIO_clearPin>:
*Function to clear Pin to LOW 
*Inputs : EN_PORTS_t port ,EN_PINS_t pin no
*/	
void DIO_clearPin(EN_PORTS_t port,EN_PINS_t pin)
{
	CLRBIT(REG(port),pin);
     bb0:	e8 2f       	mov	r30, r24
     bb2:	f0 e0       	ldi	r31, 0x00	; 0
     bb4:	80 81       	ld	r24, Z
     bb6:	21 e0       	ldi	r18, 0x01	; 1
     bb8:	30 e0       	ldi	r19, 0x00	; 0
     bba:	02 c0       	rjmp	.+4      	; 0xbc0 <DIO_clearPin+0x10>
     bbc:	22 0f       	add	r18, r18
     bbe:	33 1f       	adc	r19, r19
     bc0:	6a 95       	dec	r22
     bc2:	e2 f7       	brpl	.-8      	; 0xbbc <DIO_clearPin+0xc>
     bc4:	20 95       	com	r18
     bc6:	28 23       	and	r18, r24
     bc8:	20 83       	st	Z, r18
     bca:	08 95       	ret

00000bcc <DIO_getPin>:
*Inputs : EN_PORTS_t port ,EN_PINS_t pin no
* return u8_t that holds the input value
*/	
u8_t DIO_getPin(EN_PORTS_t port,EN_PINS_t pin)
{
	return GETBIT(REG(port-0x02),(u8_t)pin);
     bcc:	e8 2f       	mov	r30, r24
     bce:	f0 e0       	ldi	r31, 0x00	; 0
     bd0:	32 97       	sbiw	r30, 0x02	; 2
     bd2:	80 81       	ld	r24, Z
     bd4:	90 e0       	ldi	r25, 0x00	; 0
     bd6:	02 c0       	rjmp	.+4      	; 0xbdc <DIO_getPin+0x10>
     bd8:	95 95       	asr	r25
     bda:	87 95       	ror	r24
     bdc:	6a 95       	dec	r22
     bde:	e2 f7       	brpl	.-8      	; 0xbd8 <DIO_getPin+0xc>
}
     be0:	81 70       	andi	r24, 0x01	; 1
     be2:	08 95       	ret

00000be4 <I2C_Init>:
			I2C_Stop();
			continue;
		}
		break;						
	}
}
     be4:	8f 92       	push	r8
     be6:	9f 92       	push	r9
     be8:	af 92       	push	r10
     bea:	bf 92       	push	r11
     bec:	cf 92       	push	r12
     bee:	df 92       	push	r13
     bf0:	ef 92       	push	r14
     bf2:	ff 92       	push	r15
     bf4:	cf 93       	push	r28
     bf6:	9a 01       	movw	r18, r20
     bf8:	ab 01       	movw	r20, r22
     bfa:	68 2f       	mov	r22, r24
     bfc:	70 e0       	ldi	r23, 0x00	; 0
     bfe:	80 e0       	ldi	r24, 0x00	; 0
     c00:	90 e0       	ldi	r25, 0x00	; 0
     c02:	0e 94 fa 0b 	call	0x17f4	; 0x17f4 <__divmodsi4>
     c06:	69 01       	movw	r12, r18
     c08:	7a 01       	movw	r14, r20
     c0a:	80 e1       	ldi	r24, 0x10	; 16
     c0c:	c8 1a       	sub	r12, r24
     c0e:	d1 08       	sbc	r13, r1
     c10:	e1 08       	sbc	r14, r1
     c12:	f1 08       	sbc	r15, r1
     c14:	c7 01       	movw	r24, r14
     c16:	b6 01       	movw	r22, r12
     c18:	2e ef       	ldi	r18, 0xFE	; 254
     c1a:	31 e0       	ldi	r19, 0x01	; 1
     c1c:	40 e0       	ldi	r20, 0x00	; 0
     c1e:	50 e0       	ldi	r21, 0x00	; 0
     c20:	0e 94 fa 0b 	call	0x17f4	; 0x17f4 <__divmodsi4>
     c24:	ca 01       	movw	r24, r20
     c26:	b9 01       	movw	r22, r18
     c28:	0e 94 58 09 	call	0x12b0	; 0x12b0 <__floatsisf>
     c2c:	28 e1       	ldi	r18, 0x18	; 24
     c2e:	32 e7       	ldi	r19, 0x72	; 114
     c30:	41 eb       	ldi	r20, 0xB1	; 177
     c32:	5f e3       	ldi	r21, 0x3F	; 63
     c34:	0e 94 08 0a 	call	0x1410	; 0x1410 <__mulsf3>
     c38:	4b 01       	movw	r8, r22
     c3a:	5c 01       	movw	r10, r24
     c3c:	20 e0       	ldi	r18, 0x00	; 0
     c3e:	30 e0       	ldi	r19, 0x00	; 0
     c40:	a9 01       	movw	r20, r18
     c42:	0e 94 b0 08 	call	0x1160	; 0x1160 <__cmpsf2>
     c46:	88 23       	and	r24, r24
     c48:	d4 f1       	brlt	.+116    	; 0xcbe <I2C_Init+0xda>
     c4a:	c0 e0       	ldi	r28, 0x00	; 0
     c4c:	12 c0       	rjmp	.+36     	; 0xc72 <I2C_Init+0x8e>
     c4e:	6c 2f       	mov	r22, r28
     c50:	70 e0       	ldi	r23, 0x00	; 0
     c52:	80 e0       	ldi	r24, 0x00	; 0
     c54:	90 e0       	ldi	r25, 0x00	; 0
     c56:	0e 94 56 09 	call	0x12ac	; 0x12ac <__floatunsisf>
     c5a:	9b 01       	movw	r18, r22
     c5c:	ac 01       	movw	r20, r24
     c5e:	c5 01       	movw	r24, r10
     c60:	b4 01       	movw	r22, r8
     c62:	0e 94 b0 08 	call	0x1160	; 0x1160 <__cmpsf2>
     c66:	18 16       	cp	r1, r24
     c68:	1c f0       	brlt	.+6      	; 0xc70 <I2C_Init+0x8c>
     c6a:	c1 b9       	out	0x01, r28	; 1
     c6c:	81 e0       	ldi	r24, 0x01	; 1
     c6e:	04 c0       	rjmp	.+8      	; 0xc78 <I2C_Init+0x94>
     c70:	cf 5f       	subi	r28, 0xFF	; 255
     c72:	c5 30       	cpi	r28, 0x05	; 5
     c74:	60 f3       	brcs	.-40     	; 0xc4e <I2C_Init+0x6a>
     c76:	80 e0       	ldi	r24, 0x00	; 0
     c78:	81 30       	cpi	r24, 0x01	; 1
     c7a:	19 f5       	brne	.+70     	; 0xcc2 <I2C_Init+0xde>
     c7c:	6c 2f       	mov	r22, r28
     c7e:	70 e0       	ldi	r23, 0x00	; 0
     c80:	80 e0       	ldi	r24, 0x00	; 0
     c82:	90 e0       	ldi	r25, 0x00	; 0
     c84:	0e 94 56 09 	call	0x12ac	; 0x12ac <__floatunsisf>
     c88:	9b 01       	movw	r18, r22
     c8a:	ac 01       	movw	r20, r24
     c8c:	60 e0       	ldi	r22, 0x00	; 0
     c8e:	70 e0       	ldi	r23, 0x00	; 0
     c90:	80 e8       	ldi	r24, 0x80	; 128
     c92:	90 e4       	ldi	r25, 0x40	; 64
     c94:	0e 94 75 0a 	call	0x14ea	; 0x14ea <pow>
     c98:	9b 01       	movw	r18, r22
     c9a:	ac 01       	movw	r20, r24
     c9c:	0e 94 44 08 	call	0x1088	; 0x1088 <__addsf3>
     ca0:	4b 01       	movw	r8, r22
     ca2:	5c 01       	movw	r10, r24
     ca4:	c7 01       	movw	r24, r14
     ca6:	b6 01       	movw	r22, r12
     ca8:	0e 94 58 09 	call	0x12b0	; 0x12b0 <__floatsisf>
     cac:	a5 01       	movw	r20, r10
     cae:	94 01       	movw	r18, r8
     cb0:	0e 94 b5 08 	call	0x116a	; 0x116a <__divsf3>
     cb4:	0e 94 27 09 	call	0x124e	; 0x124e <__fixunssfsi>
     cb8:	60 b9       	out	0x00, r22	; 0
     cba:	81 e0       	ldi	r24, 0x01	; 1
     cbc:	03 c0       	rjmp	.+6      	; 0xcc4 <I2C_Init+0xe0>
     cbe:	80 e0       	ldi	r24, 0x00	; 0
     cc0:	01 c0       	rjmp	.+2      	; 0xcc4 <I2C_Init+0xe0>
     cc2:	80 e0       	ldi	r24, 0x00	; 0
     cc4:	cf 91       	pop	r28
     cc6:	ff 90       	pop	r15
     cc8:	ef 90       	pop	r14
     cca:	df 90       	pop	r13
     ccc:	cf 90       	pop	r12
     cce:	bf 90       	pop	r11
     cd0:	af 90       	pop	r10
     cd2:	9f 90       	pop	r9
     cd4:	8f 90       	pop	r8
     cd6:	08 95       	ret

00000cd8 <I2C_Master_Start>:
     cd8:	96 b7       	in	r25, 0x36	; 54
     cda:	90 62       	ori	r25, 0x20	; 32
     cdc:	96 bf       	out	0x36, r25	; 54
     cde:	96 b7       	in	r25, 0x36	; 54
     ce0:	94 60       	ori	r25, 0x04	; 4
     ce2:	96 bf       	out	0x36, r25	; 54
     ce4:	96 b7       	in	r25, 0x36	; 54
     ce6:	90 68       	ori	r25, 0x80	; 128
     ce8:	96 bf       	out	0x36, r25	; 54
     cea:	06 b6       	in	r0, 0x36	; 54
     cec:	07 fe       	sbrs	r0, 7
     cee:	fd cf       	rjmp	.-6      	; 0xcea <I2C_Master_Start+0x12>
     cf0:	91 b1       	in	r25, 0x01	; 1
     cf2:	98 7f       	andi	r25, 0xF8	; 248
     cf4:	98 30       	cpi	r25, 0x08	; 8
     cf6:	91 f4       	brne	.+36     	; 0xd1c <I2C_Master_Start+0x44>
     cf8:	83 b9       	out	0x03, r24	; 3
     cfa:	86 b7       	in	r24, 0x36	; 54
     cfc:	84 60       	ori	r24, 0x04	; 4
     cfe:	86 bf       	out	0x36, r24	; 54
     d00:	86 b7       	in	r24, 0x36	; 54
     d02:	80 68       	ori	r24, 0x80	; 128
     d04:	86 bf       	out	0x36, r24	; 54
     d06:	06 b6       	in	r0, 0x36	; 54
     d08:	07 fe       	sbrs	r0, 7
     d0a:	fd cf       	rjmp	.-6      	; 0xd06 <I2C_Master_Start+0x2e>
     d0c:	81 b1       	in	r24, 0x01	; 1
     d0e:	88 7f       	andi	r24, 0xF8	; 248
     d10:	88 31       	cpi	r24, 0x18	; 24
     d12:	31 f0       	breq	.+12     	; 0xd20 <I2C_Master_Start+0x48>
     d14:	80 32       	cpi	r24, 0x20	; 32
     d16:	31 f4       	brne	.+12     	; 0xd24 <I2C_Master_Start+0x4c>
     d18:	82 e0       	ldi	r24, 0x02	; 2
     d1a:	08 95       	ret
     d1c:	80 e0       	ldi	r24, 0x00	; 0
     d1e:	08 95       	ret
     d20:	81 e0       	ldi	r24, 0x01	; 1
     d22:	08 95       	ret
     d24:	83 e0       	ldi	r24, 0x03	; 3
     d26:	08 95       	ret

00000d28 <I2C_Master_Write>:
     d28:	83 b9       	out	0x03, r24	; 3
     d2a:	86 b7       	in	r24, 0x36	; 54
     d2c:	84 60       	ori	r24, 0x04	; 4
     d2e:	86 bf       	out	0x36, r24	; 54
     d30:	86 b7       	in	r24, 0x36	; 54
     d32:	80 68       	ori	r24, 0x80	; 128
     d34:	86 bf       	out	0x36, r24	; 54
     d36:	06 b6       	in	r0, 0x36	; 54
     d38:	07 fe       	sbrs	r0, 7
     d3a:	fd cf       	rjmp	.-6      	; 0xd36 <I2C_Master_Write+0xe>
     d3c:	81 b1       	in	r24, 0x01	; 1
     d3e:	88 7f       	andi	r24, 0xF8	; 248
     d40:	88 32       	cpi	r24, 0x28	; 40
     d42:	21 f0       	breq	.+8      	; 0xd4c <I2C_Master_Write+0x24>
     d44:	80 33       	cpi	r24, 0x30	; 48
     d46:	21 f4       	brne	.+8      	; 0xd50 <I2C_Master_Write+0x28>
     d48:	81 e0       	ldi	r24, 0x01	; 1
     d4a:	08 95       	ret
     d4c:	80 e0       	ldi	r24, 0x00	; 0
     d4e:	08 95       	ret
     d50:	82 e0       	ldi	r24, 0x02	; 2
     d52:	08 95       	ret

00000d54 <I2C_Repeated_Start>:
     d54:	96 b7       	in	r25, 0x36	; 54
     d56:	94 60       	ori	r25, 0x04	; 4
     d58:	96 bf       	out	0x36, r25	; 54
     d5a:	96 b7       	in	r25, 0x36	; 54
     d5c:	90 68       	ori	r25, 0x80	; 128
     d5e:	96 bf       	out	0x36, r25	; 54
     d60:	96 b7       	in	r25, 0x36	; 54
     d62:	90 62       	ori	r25, 0x20	; 32
     d64:	96 bf       	out	0x36, r25	; 54
     d66:	06 b6       	in	r0, 0x36	; 54
     d68:	07 fe       	sbrs	r0, 7
     d6a:	fd cf       	rjmp	.-6      	; 0xd66 <I2C_Repeated_Start+0x12>
     d6c:	91 b1       	in	r25, 0x01	; 1
     d6e:	98 7f       	andi	r25, 0xF8	; 248
     d70:	90 31       	cpi	r25, 0x10	; 16
     d72:	91 f4       	brne	.+36     	; 0xd98 <I2C_Repeated_Start+0x44>
     d74:	83 b9       	out	0x03, r24	; 3
     d76:	86 b7       	in	r24, 0x36	; 54
     d78:	84 60       	ori	r24, 0x04	; 4
     d7a:	86 bf       	out	0x36, r24	; 54
     d7c:	86 b7       	in	r24, 0x36	; 54
     d7e:	80 68       	ori	r24, 0x80	; 128
     d80:	86 bf       	out	0x36, r24	; 54
     d82:	06 b6       	in	r0, 0x36	; 54
     d84:	07 fe       	sbrs	r0, 7
     d86:	fd cf       	rjmp	.-6      	; 0xd82 <I2C_Repeated_Start+0x2e>
     d88:	81 b1       	in	r24, 0x01	; 1
     d8a:	88 7f       	andi	r24, 0xF8	; 248
     d8c:	80 34       	cpi	r24, 0x40	; 64
     d8e:	31 f0       	breq	.+12     	; 0xd9c <I2C_Repeated_Start+0x48>
     d90:	88 34       	cpi	r24, 0x48	; 72
     d92:	31 f4       	brne	.+12     	; 0xda0 <I2C_Repeated_Start+0x4c>
     d94:	82 e0       	ldi	r24, 0x02	; 2
     d96:	08 95       	ret
     d98:	80 e0       	ldi	r24, 0x00	; 0
     d9a:	08 95       	ret
     d9c:	81 e0       	ldi	r24, 0x01	; 1
     d9e:	08 95       	ret
     da0:	83 e0       	ldi	r24, 0x03	; 3
     da2:	08 95       	ret

00000da4 <I2C_Read_Ack>:
	SETBIT(I2C_CONTROL_REG,TWSTO);
	while(GETBIT(I2C_CONTROL_REG,TWSTO));								
}
s8_t I2C_Read_Ack()											
{
	ENABLE_I2C;
     da4:	86 b7       	in	r24, 0x36	; 54
     da6:	84 60       	ori	r24, 0x04	; 4
     da8:	86 bf       	out	0x36, r24	; 54
	CLEAR_IF;
     daa:	86 b7       	in	r24, 0x36	; 54
     dac:	80 68       	ori	r24, 0x80	; 128
     dae:	86 bf       	out	0x36, r24	; 54
	GENERATE_ACK;
     db0:	86 b7       	in	r24, 0x36	; 54
     db2:	80 64       	ori	r24, 0x40	; 64
     db4:	86 bf       	out	0x36, r24	; 54
		
	while (!GETBIT(I2C_CONTROL_REG,I2C_IF));							
     db6:	06 b6       	in	r0, 0x36	; 54
     db8:	07 fe       	sbrs	r0, 7
     dba:	fd cf       	rjmp	.-6      	; 0xdb6 <I2C_Read_Ack+0x12>
	return TWDR_REG;											
     dbc:	83 b1       	in	r24, 0x03	; 3
}
     dbe:	08 95       	ret

00000dc0 <I2C_Read_Nack>:

s8_t I2C_Read_Nack()										
{
	ENABLE_I2C;
     dc0:	86 b7       	in	r24, 0x36	; 54
     dc2:	84 60       	ori	r24, 0x04	; 4
     dc4:	86 bf       	out	0x36, r24	; 54
	CLEAR_IF;
     dc6:	86 b7       	in	r24, 0x36	; 54
     dc8:	80 68       	ori	r24, 0x80	; 128
     dca:	86 bf       	out	0x36, r24	; 54
	
	while (!GETBIT(I2C_CONTROL_REG,I2C_IF));							
     dcc:	06 b6       	in	r0, 0x36	; 54
     dce:	07 fe       	sbrs	r0, 7
     dd0:	fd cf       	rjmp	.-6      	; 0xdcc <I2C_Read_Nack+0xc>
	return TWDR_REG;											
     dd2:	83 b1       	in	r24, 0x03	; 3
}
     dd4:	08 95       	ret

00000dd6 <usbDeviceRead>:

/* This function is similar to usbFunctionRead(), but it's also called for
 * data handled automatically by the driver (e.g. descriptor reads).
 */
static uchar usbDeviceRead(uchar *data, uchar len)
{
     dd6:	dc 01       	movw	r26, r24
     dd8:	86 2f       	mov	r24, r22
    if(len > 0){    /* don't bother app with 0 sized reads */
     dda:	66 23       	and	r22, r22
     ddc:	e1 f0       	breq	.+56     	; 0xe16 <usbDeviceRead+0x40>
            len = usbFunctionRead(data, len);
        }else
#endif
        {
            uchar i = len;
            usbMsgPtr_t r = usbMsgPtr;
     dde:	e0 91 98 00 	lds	r30, 0x0098	; 0x800098 <usbMsgPtr>
     de2:	f0 91 99 00 	lds	r31, 0x0099	; 0x800099 <usbMsgPtr+0x1>
            if(usbMsgFlags & USB_FLG_MSGPTR_IS_ROM){    /* ROM data */
     de6:	90 91 6c 00 	lds	r25, 0x006C	; 0x80006c <usbMsgFlags>
     dea:	96 ff       	sbrs	r25, 6
     dec:	09 c0       	rjmp	.+18     	; 0xe00 <usbDeviceRead+0x2a>
     dee:	96 2f       	mov	r25, r22
                do{
                    uchar c = USB_READ_FLASH(r);    /* assign to char size variable to enforce byte ops */
     df0:	24 91       	lpm	r18, Z
                    *data++ = c;
     df2:	2c 93       	st	X, r18
                    r++;
     df4:	31 96       	adiw	r30, 0x01	; 1
                }while(--i);
     df6:	91 50       	subi	r25, 0x01	; 1
            uchar i = len;
            usbMsgPtr_t r = usbMsgPtr;
            if(usbMsgFlags & USB_FLG_MSGPTR_IS_ROM){    /* ROM data */
                do{
                    uchar c = USB_READ_FLASH(r);    /* assign to char size variable to enforce byte ops */
                    *data++ = c;
     df8:	11 96       	adiw	r26, 0x01	; 1
                    r++;
                }while(--i);
     dfa:	91 11       	cpse	r25, r1
     dfc:	f9 cf       	rjmp	.-14     	; 0xdf0 <usbDeviceRead+0x1a>
     dfe:	07 c0       	rjmp	.+14     	; 0xe0e <usbDeviceRead+0x38>
     e00:	96 2f       	mov	r25, r22
            }else{  /* RAM data */
                do{
                    *data++ = *((uchar *)r);
     e02:	21 91       	ld	r18, Z+
     e04:	2c 93       	st	X, r18
                    r++;
                }while(--i);
     e06:	91 50       	subi	r25, 0x01	; 1
                    *data++ = c;
                    r++;
                }while(--i);
            }else{  /* RAM data */
                do{
                    *data++ = *((uchar *)r);
     e08:	11 96       	adiw	r26, 0x01	; 1
                    r++;
                }while(--i);
     e0a:	91 11       	cpse	r25, r1
     e0c:	fa cf       	rjmp	.-12     	; 0xe02 <usbDeviceRead+0x2c>
            }
            usbMsgPtr = r;
     e0e:	f0 93 99 00 	sts	0x0099, r31	; 0x800099 <usbMsgPtr+0x1>
     e12:	e0 93 98 00 	sts	0x0098, r30	; 0x800098 <usbMsgPtr>
        }
    }
    return len;
}
     e16:	08 95       	ret

00000e18 <usbGenericSetInterrupt>:
/* ------------------------------------------------------------------------- */

#if !USB_CFG_SUPPRESS_INTR_CODE
#if USB_CFG_HAVE_INTRIN_ENDPOINT
static void usbGenericSetInterrupt(uchar *data, uchar len, usbTxStatus_t *txStatus)
{
     e18:	0f 93       	push	r16
     e1a:	1f 93       	push	r17
     e1c:	cf 93       	push	r28
     e1e:	dc 01       	movw	r26, r24
     e20:	c6 2f       	mov	r28, r22
     e22:	8a 01       	movw	r16, r20

#if USB_CFG_IMPLEMENT_HALT
    if(usbTxLen1 == USBPID_STALL)
        return;
#endif
    if(txStatus->len & 0x10){   /* packet buffer was empty */
     e24:	fa 01       	movw	r30, r20
     e26:	80 81       	ld	r24, Z
     e28:	84 ff       	sbrs	r24, 4
     e2a:	05 c0       	rjmp	.+10     	; 0xe36 <usbGenericSetInterrupt+0x1e>
        txStatus->buffer[0] ^= USBPID_DATA0 ^ USBPID_DATA1; /* toggle token */
     e2c:	91 81       	ldd	r25, Z+1	; 0x01
     e2e:	88 e8       	ldi	r24, 0x88	; 136
     e30:	89 27       	eor	r24, r25
     e32:	81 83       	std	Z+1, r24	; 0x01
     e34:	03 c0       	rjmp	.+6      	; 0xe3c <usbGenericSetInterrupt+0x24>
    }else{
        txStatus->len = USBPID_NAK; /* avoid sending outdated (overwritten) interrupt data */
     e36:	8a e5       	ldi	r24, 0x5A	; 90
     e38:	fa 01       	movw	r30, r20
     e3a:	80 83       	st	Z, r24
    }
    p = txStatus->buffer + 1;
     e3c:	a8 01       	movw	r20, r16
     e3e:	4e 5f       	subi	r20, 0xFE	; 254
     e40:	5f 4f       	sbci	r21, 0xFF	; 255
    i = len;
     e42:	9c 2f       	mov	r25, r28
    if(txStatus->len & 0x10){   /* packet buffer was empty */
        txStatus->buffer[0] ^= USBPID_DATA0 ^ USBPID_DATA1; /* toggle token */
    }else{
        txStatus->len = USBPID_NAK; /* avoid sending outdated (overwritten) interrupt data */
    }
    p = txStatus->buffer + 1;
     e44:	fa 01       	movw	r30, r20
    i = len;
    do{                         /* if len == 0, we still copy 1 byte, but that's no problem */
        *p++ = *data++;
     e46:	2c 91       	ld	r18, X
     e48:	20 83       	st	Z, r18
    }while(--i > 0);            /* loop control at the end is 2 bytes shorter than at beginning */
     e4a:	91 50       	subi	r25, 0x01	; 1
        txStatus->len = USBPID_NAK; /* avoid sending outdated (overwritten) interrupt data */
    }
    p = txStatus->buffer + 1;
    i = len;
    do{                         /* if len == 0, we still copy 1 byte, but that's no problem */
        *p++ = *data++;
     e4c:	11 96       	adiw	r26, 0x01	; 1
     e4e:	31 96       	adiw	r30, 0x01	; 1
    }while(--i > 0);            /* loop control at the end is 2 bytes shorter than at beginning */
     e50:	91 11       	cpse	r25, r1
     e52:	f9 cf       	rjmp	.-14     	; 0xe46 <usbGenericSetInterrupt+0x2e>
    usbCrc16Append(&txStatus->buffer[1], len);
     e54:	6c 2f       	mov	r22, r28
     e56:	ca 01       	movw	r24, r20
     e58:	0e 94 eb 00 	call	0x1d6	; 0x1d6 <usbCrc16Append>
    txStatus->len = len + 4;    /* len must be given including sync byte */
     e5c:	cc 5f       	subi	r28, 0xFC	; 252
     e5e:	f8 01       	movw	r30, r16
     e60:	c0 83       	st	Z, r28
    DBG2(0x21 + (((int)txStatus >> 3) & 3), txStatus->buffer, len + 3);
}
     e62:	cf 91       	pop	r28
     e64:	1f 91       	pop	r17
     e66:	0f 91       	pop	r16
     e68:	08 95       	ret

00000e6a <usbSetInterrupt>:

USB_PUBLIC void usbSetInterrupt(uchar *data, uchar len)
{
    usbGenericSetInterrupt(data, len, &usbTxStatus1);
     e6a:	49 e8       	ldi	r20, 0x89	; 137
     e6c:	50 e0       	ldi	r21, 0x00	; 0
     e6e:	0e 94 0c 07 	call	0xe18	; 0xe18 <usbGenericSetInterrupt>
     e72:	08 95       	ret

00000e74 <usbPoll>:
}

/* ------------------------------------------------------------------------- */

USB_PUBLIC void usbPoll(void)
{
     e74:	cf 93       	push	r28
     e76:	df 93       	push	r29
schar   len;
uchar   i;

    len = usbRxLen - 3;
     e78:	80 91 9a 00 	lds	r24, 0x009A	; 0x80009a <usbRxLen>
     e7c:	83 50       	subi	r24, 0x03	; 3
    if(len >= 0){
     e7e:	0a f4       	brpl	.+2      	; 0xe82 <usbPoll+0xe>
     e80:	b7 c0       	rjmp	.+366    	; 0xff0 <usbPoll+0x17c>
 * need data integrity checks with this driver, check the CRC in your app
 * code and report errors back to the host. Since the ACK was already sent,
 * retries must be handled on application level.
 * unsigned crc = usbCrc16(buffer + 1, usbRxLen - 3);
 */
        usbProcessRx(usbRxBuf + USB_BUFSIZE + 1 - usbInputBufOffset, len);
     e82:	90 91 97 00 	lds	r25, 0x0097	; 0x800097 <usbInputBufOffset>
     e86:	2c e0       	ldi	r18, 0x0C	; 12
     e88:	30 e0       	ldi	r19, 0x00	; 0
     e8a:	29 1b       	sub	r18, r25
     e8c:	31 09       	sbc	r19, r1
     e8e:	e9 01       	movw	r28, r18
     e90:	c2 56       	subi	r28, 0x62	; 98
     e92:	df 4f       	sbci	r29, 0xFF	; 255
    if(usbRxToken < 0x10){  /* OUT to endpoint != 0: endpoint number in usbRxToken */
        usbFunctionWriteOut(data, len);
        return;
    }
#endif
    if(usbRxToken == (uchar)USBPID_SETUP){
     e94:	90 91 96 00 	lds	r25, 0x0096	; 0x800096 <usbRxToken>
     e98:	9d 32       	cpi	r25, 0x2D	; 45
     e9a:	09 f0       	breq	.+2      	; 0xe9e <usbPoll+0x2a>
     e9c:	a7 c0       	rjmp	.+334    	; 0xfec <usbPoll+0x178>
        if(len != 8)    /* Setup size must be always 8 bytes. Ignore otherwise. */
     e9e:	88 30       	cpi	r24, 0x08	; 8
     ea0:	09 f0       	breq	.+2      	; 0xea4 <usbPoll+0x30>
     ea2:	a4 c0       	rjmp	.+328    	; 0xfec <usbPoll+0x178>
            return;
        usbMsgLen_t replyLen;
        usbTxBuf[0] = USBPID_DATA0;         /* initialize data toggling */
     ea4:	83 ec       	ldi	r24, 0xC3	; 195
     ea6:	80 93 7e 00 	sts	0x007E, r24	; 0x80007e <usbTxBuf>
        usbTxLen = USBPID_NAK;              /* abort pending transmit */
     eaa:	8a e5       	ldi	r24, 0x5A	; 90
     eac:	80 93 69 00 	sts	0x0069, r24	; 0x800069 <usbTxLen>
        usbMsgFlags = 0;
     eb0:	10 92 6c 00 	sts	0x006C, r1	; 0x80006c <usbMsgFlags>
        uchar type = rq->bmRequestType & USBRQ_TYPE_MASK;
     eb4:	88 81       	ld	r24, Y
     eb6:	80 76       	andi	r24, 0x60	; 96
        if(type != USBRQ_TYPE_STANDARD){    /* standard requests are handled by driver */
     eb8:	21 f0       	breq	.+8      	; 0xec2 <usbPoll+0x4e>
            replyLen = usbFunctionSetup(data);
     eba:	ce 01       	movw	r24, r28
     ebc:	0e 94 0a 05 	call	0xa14	; 0xa14 <usbFunctionSetup>
     ec0:	8c c0       	rjmp	.+280    	; 0xfda <usbPoll+0x166>
 */
static inline usbMsgLen_t usbDriverSetup(usbRequest_t *rq)
{
usbMsgLen_t len = 0;
uchar   *dataPtr = usbTxBuf + 9;    /* there are 2 bytes free space at the end of the buffer */
uchar   value = rq->wValue.bytes[0];
     ec2:	9a 81       	ldd	r25, Y+2	; 0x02
#if USB_CFG_IMPLEMENT_HALT
uchar   index = rq->wIndex.bytes[0];
#endif

    dataPtr[0] = 0; /* default reply common to USBRQ_GET_STATUS and USBRQ_GET_INTERFACE */
     ec4:	10 92 87 00 	sts	0x0087, r1	; 0x800087 <usbTxBuf+0x9>
    SWITCH_START(rq->bRequest)
     ec8:	89 81       	ldd	r24, Y+1	; 0x01
    SWITCH_CASE(USBRQ_GET_STATUS)           /* 0 */
     eca:	81 11       	cpse	r24, r1
     ecc:	06 c0       	rjmp	.+12     	; 0xeda <usbPoll+0x66>
            dataPtr[0] =  USB_CFG_IS_SELF_POWERED;
#if USB_CFG_IMPLEMENT_HALT
        if(recipient == USBRQ_RCPT_ENDPOINT && index == 0x81)   /* request status for endpoint 1 */
            dataPtr[0] = usbTxLen1 == USBPID_STALL;
#endif
        dataPtr[1] = 0;
     ece:	10 92 88 00 	sts	0x0088, r1	; 0x800088 <usbTxBuf+0xa>
 * standard requests instead of class and custom requests.
 */
static inline usbMsgLen_t usbDriverSetup(usbRequest_t *rq)
{
usbMsgLen_t len = 0;
uchar   *dataPtr = usbTxBuf + 9;    /* there are 2 bytes free space at the end of the buffer */
     ed2:	27 e8       	ldi	r18, 0x87	; 135
     ed4:	30 e0       	ldi	r19, 0x00	; 0
#if USB_CFG_IMPLEMENT_HALT
        if(recipient == USBRQ_RCPT_ENDPOINT && index == 0x81)   /* request status for endpoint 1 */
            dataPtr[0] = usbTxLen1 == USBPID_STALL;
#endif
        dataPtr[1] = 0;
        len = 2;
     ed6:	82 e0       	ldi	r24, 0x02	; 2
     ed8:	7c c0       	rjmp	.+248    	; 0xfd2 <usbPoll+0x15e>
        if(value == 0 && index == 0x81){    /* feature 0 == HALT for endpoint == 1 */
            usbTxLen1 = rq->bRequest == USBRQ_CLEAR_FEATURE ? USBPID_NAK : USBPID_STALL;
            usbResetDataToggling();
        }
#endif
    SWITCH_CASE(USBRQ_SET_ADDRESS)          /* 5 */
     eda:	85 30       	cpi	r24, 0x05	; 5
     edc:	31 f4       	brne	.+12     	; 0xeea <usbPoll+0x76>
        usbNewDeviceAddr = value;
     ede:	90 93 9b 00 	sts	0x009B, r25	; 0x80009b <usbNewDeviceAddr>
 * standard requests instead of class and custom requests.
 */
static inline usbMsgLen_t usbDriverSetup(usbRequest_t *rq)
{
usbMsgLen_t len = 0;
uchar   *dataPtr = usbTxBuf + 9;    /* there are 2 bytes free space at the end of the buffer */
     ee2:	27 e8       	ldi	r18, 0x87	; 135
     ee4:	30 e0       	ldi	r19, 0x00	; 0
/* usbDriverSetup() is similar to usbFunctionSetup(), but it's used for
 * standard requests instead of class and custom requests.
 */
static inline usbMsgLen_t usbDriverSetup(usbRequest_t *rq)
{
usbMsgLen_t len = 0;
     ee6:	80 e0       	ldi	r24, 0x00	; 0
     ee8:	74 c0       	rjmp	.+232    	; 0xfd2 <usbPoll+0x15e>
        }
#endif
    SWITCH_CASE(USBRQ_SET_ADDRESS)          /* 5 */
        usbNewDeviceAddr = value;
        USB_SET_ADDRESS_HOOK();
    SWITCH_CASE(USBRQ_GET_DESCRIPTOR)       /* 6 */
     eea:	86 30       	cpi	r24, 0x06	; 6
     eec:	09 f0       	breq	.+2      	; 0xef0 <usbPoll+0x7c>
     eee:	51 c0       	rjmp	.+162    	; 0xf92 <usbPoll+0x11e>
static inline usbMsgLen_t usbDriverDescriptor(usbRequest_t *rq)
{
usbMsgLen_t len = 0;
uchar       flags = USB_FLG_MSGPTR_IS_ROM;

    SWITCH_START(rq->wValue.bytes[1])
     ef0:	8b 81       	ldd	r24, Y+3	; 0x03
    SWITCH_CASE(USBDESCR_DEVICE)    /* 1 */
     ef2:	81 30       	cpi	r24, 0x01	; 1
     ef4:	41 f4       	brne	.+16     	; 0xf06 <usbPoll+0x92>
        GET_DESCRIPTOR(USB_CFG_DESCR_PROPS_DEVICE, usbDescriptorDevice)
     ef6:	8a e3       	ldi	r24, 0x3A	; 58
     ef8:	91 e0       	ldi	r25, 0x01	; 1
     efa:	90 93 99 00 	sts	0x0099, r25	; 0x800099 <usbMsgPtr+0x1>
     efe:	80 93 98 00 	sts	0x0098, r24	; 0x800098 <usbMsgPtr>
     f02:	82 e1       	ldi	r24, 0x12	; 18
     f04:	42 c0       	rjmp	.+132    	; 0xf8a <usbPoll+0x116>
    SWITCH_CASE(USBDESCR_CONFIG)    /* 2 */
     f06:	82 30       	cpi	r24, 0x02	; 2
     f08:	41 f4       	brne	.+16     	; 0xf1a <usbPoll+0xa6>
        GET_DESCRIPTOR(USB_CFG_DESCR_PROPS_CONFIGURATION, usbDescriptorConfiguration)
     f0a:	88 e1       	ldi	r24, 0x18	; 24
     f0c:	91 e0       	ldi	r25, 0x01	; 1
     f0e:	90 93 99 00 	sts	0x0099, r25	; 0x800099 <usbMsgPtr+0x1>
     f12:	80 93 98 00 	sts	0x0098, r24	; 0x800098 <usbMsgPtr>
     f16:	82 e2       	ldi	r24, 0x22	; 34
     f18:	38 c0       	rjmp	.+112    	; 0xf8a <usbPoll+0x116>
    SWITCH_CASE(USBDESCR_STRING)    /* 3 */
     f1a:	83 30       	cpi	r24, 0x03	; 3
     f1c:	f9 f4       	brne	.+62     	; 0xf5c <usbPoll+0xe8>
#if USB_CFG_DESCR_PROPS_STRINGS & USB_PROP_IS_DYNAMIC
        if(USB_CFG_DESCR_PROPS_STRINGS & USB_PROP_IS_RAM)
            flags = 0;
        len = usbFunctionDescriptor(rq);
#else   /* USB_CFG_DESCR_PROPS_STRINGS & USB_PROP_IS_DYNAMIC */
        SWITCH_START(rq->wValue.bytes[0])
     f1e:	8a 81       	ldd	r24, Y+2	; 0x02
        SWITCH_CASE(0)
     f20:	81 11       	cpse	r24, r1
     f22:	08 c0       	rjmp	.+16     	; 0xf34 <usbPoll+0xc0>
            GET_DESCRIPTOR(USB_CFG_DESCR_PROPS_STRING_0, usbDescriptorString0)
     f24:	8a e6       	ldi	r24, 0x6A	; 106
     f26:	91 e0       	ldi	r25, 0x01	; 1
     f28:	90 93 99 00 	sts	0x0099, r25	; 0x800099 <usbMsgPtr+0x1>
     f2c:	80 93 98 00 	sts	0x0098, r24	; 0x800098 <usbMsgPtr>
     f30:	84 e0       	ldi	r24, 0x04	; 4
     f32:	2b c0       	rjmp	.+86     	; 0xf8a <usbPoll+0x116>
        SWITCH_CASE(1)
     f34:	81 30       	cpi	r24, 0x01	; 1
     f36:	41 f4       	brne	.+16     	; 0xf48 <usbPoll+0xd4>
            GET_DESCRIPTOR(USB_CFG_DESCR_PROPS_STRING_VENDOR, usbDescriptorStringVendor)
     f38:	88 e5       	ldi	r24, 0x58	; 88
     f3a:	91 e0       	ldi	r25, 0x01	; 1
     f3c:	90 93 99 00 	sts	0x0099, r25	; 0x800099 <usbMsgPtr+0x1>
     f40:	80 93 98 00 	sts	0x0098, r24	; 0x800098 <usbMsgPtr>
     f44:	82 e1       	ldi	r24, 0x12	; 18
     f46:	21 c0       	rjmp	.+66     	; 0xf8a <usbPoll+0x116>
        SWITCH_CASE(2)
     f48:	82 30       	cpi	r24, 0x02	; 2
     f4a:	e1 f4       	brne	.+56     	; 0xf84 <usbPoll+0x110>
            GET_DESCRIPTOR(USB_CFG_DESCR_PROPS_STRING_PRODUCT, usbDescriptorStringDevice)
     f4c:	8c e4       	ldi	r24, 0x4C	; 76
     f4e:	91 e0       	ldi	r25, 0x01	; 1
     f50:	90 93 99 00 	sts	0x0099, r25	; 0x800099 <usbMsgPtr+0x1>
     f54:	80 93 98 00 	sts	0x0098, r24	; 0x800098 <usbMsgPtr>
     f58:	8c e0       	ldi	r24, 0x0C	; 12
     f5a:	17 c0       	rjmp	.+46     	; 0xf8a <usbPoll+0x116>
                len = usbFunctionDescriptor(rq);
            }
        SWITCH_END
#endif  /* USB_CFG_DESCR_PROPS_STRINGS & USB_PROP_IS_DYNAMIC */
#if USB_CFG_DESCR_PROPS_HID_REPORT  /* only support HID descriptors if enabled */
    SWITCH_CASE(USBDESCR_HID)       /* 0x21 */
     f5c:	81 32       	cpi	r24, 0x21	; 33
     f5e:	41 f4       	brne	.+16     	; 0xf70 <usbPoll+0xfc>
        GET_DESCRIPTOR(USB_CFG_DESCR_PROPS_HID, usbDescriptorConfiguration + 18)
     f60:	8a e2       	ldi	r24, 0x2A	; 42
     f62:	91 e0       	ldi	r25, 0x01	; 1
     f64:	90 93 99 00 	sts	0x0099, r25	; 0x800099 <usbMsgPtr+0x1>
     f68:	80 93 98 00 	sts	0x0098, r24	; 0x800098 <usbMsgPtr>
     f6c:	89 e0       	ldi	r24, 0x09	; 9
     f6e:	0d c0       	rjmp	.+26     	; 0xf8a <usbPoll+0x116>
    SWITCH_CASE(USBDESCR_HID_REPORT)/* 0x22 */
     f70:	82 32       	cpi	r24, 0x22	; 34
     f72:	51 f4       	brne	.+20     	; 0xf88 <usbPoll+0x114>
        GET_DESCRIPTOR(USB_CFG_DESCR_PROPS_HID_REPORT, usbDescriptorHidReport)
     f74:	84 ee       	ldi	r24, 0xE4	; 228
     f76:	90 e0       	ldi	r25, 0x00	; 0
     f78:	90 93 99 00 	sts	0x0099, r25	; 0x800099 <usbMsgPtr+0x1>
     f7c:	80 93 98 00 	sts	0x0098, r24	; 0x800098 <usbMsgPtr>
     f80:	84 e3       	ldi	r24, 0x34	; 52
     f82:	03 c0       	rjmp	.+6      	; 0xf8a <usbPoll+0x116>
/* usbDriverDescriptor() is similar to usbFunctionDescriptor(), but used
 * internally for all types of descriptors.
 */
static inline usbMsgLen_t usbDriverDescriptor(usbRequest_t *rq)
{
usbMsgLen_t len = 0;
     f84:	80 e0       	ldi	r24, 0x00	; 0
     f86:	01 c0       	rjmp	.+2      	; 0xf8a <usbPoll+0x116>
     f88:	80 e0       	ldi	r24, 0x00	; 0
    SWITCH_DEFAULT
        if(USB_CFG_DESCR_PROPS_UNKNOWN & USB_PROP_IS_DYNAMIC){
            len = usbFunctionDescriptor(rq);
        }
    SWITCH_END
    usbMsgFlags = flags;
     f8a:	90 e4       	ldi	r25, 0x40	; 64
     f8c:	90 93 6c 00 	sts	0x006C, r25	; 0x80006c <usbMsgFlags>
     f90:	24 c0       	rjmp	.+72     	; 0xfda <usbPoll+0x166>
        usbNewDeviceAddr = value;
        USB_SET_ADDRESS_HOOK();
    SWITCH_CASE(USBRQ_GET_DESCRIPTOR)       /* 6 */
        len = usbDriverDescriptor(rq);
        goto skipMsgPtrAssignment;
    SWITCH_CASE(USBRQ_GET_CONFIGURATION)    /* 8 */
     f92:	88 30       	cpi	r24, 0x08	; 8
     f94:	99 f0       	breq	.+38     	; 0xfbc <usbPoll+0x148>
        dataPtr = &usbConfiguration;  /* send current configuration value */
        len = 1;
    SWITCH_CASE(USBRQ_SET_CONFIGURATION)    /* 9 */
     f96:	89 30       	cpi	r24, 0x09	; 9
     f98:	31 f4       	brne	.+12     	; 0xfa6 <usbPoll+0x132>
        usbConfiguration = value;
     f9a:	90 93 9d 00 	sts	0x009D, r25	; 0x80009d <usbConfiguration>
 * standard requests instead of class and custom requests.
 */
static inline usbMsgLen_t usbDriverSetup(usbRequest_t *rq)
{
usbMsgLen_t len = 0;
uchar   *dataPtr = usbTxBuf + 9;    /* there are 2 bytes free space at the end of the buffer */
     f9e:	27 e8       	ldi	r18, 0x87	; 135
     fa0:	30 e0       	ldi	r19, 0x00	; 0
/* usbDriverSetup() is similar to usbFunctionSetup(), but it's used for
 * standard requests instead of class and custom requests.
 */
static inline usbMsgLen_t usbDriverSetup(usbRequest_t *rq)
{
usbMsgLen_t len = 0;
     fa2:	80 e0       	ldi	r24, 0x00	; 0
     fa4:	16 c0       	rjmp	.+44     	; 0xfd2 <usbPoll+0x15e>
        dataPtr = &usbConfiguration;  /* send current configuration value */
        len = 1;
    SWITCH_CASE(USBRQ_SET_CONFIGURATION)    /* 9 */
        usbConfiguration = value;
        usbResetStall();
    SWITCH_CASE(USBRQ_GET_INTERFACE)        /* 10 */
     fa6:	8a 30       	cpi	r24, 0x0A	; 10
     fa8:	69 f0       	breq	.+26     	; 0xfc4 <usbPoll+0x150>
        len = 1;
#if USB_CFG_HAVE_INTRIN_ENDPOINT && !USB_CFG_SUPPRESS_INTR_CODE
    SWITCH_CASE(USBRQ_SET_INTERFACE)        /* 11 */
     faa:	8b 30       	cpi	r24, 0x0B	; 11
     fac:	79 f4       	brne	.+30     	; 0xfcc <usbPoll+0x158>
/* ------------------------------------------------------------------------- */

static inline void  usbResetDataToggling(void)
{
#if USB_CFG_HAVE_INTRIN_ENDPOINT && !USB_CFG_SUPPRESS_INTR_CODE
    USB_SET_DATATOKEN1(USB_INITIAL_DATATOKEN);  /* reset data toggling for interrupt endpoint */
     fae:	8b e4       	ldi	r24, 0x4B	; 75
     fb0:	80 93 8a 00 	sts	0x008A, r24	; 0x80008a <usbTxStatus1+0x1>
 * standard requests instead of class and custom requests.
 */
static inline usbMsgLen_t usbDriverSetup(usbRequest_t *rq)
{
usbMsgLen_t len = 0;
uchar   *dataPtr = usbTxBuf + 9;    /* there are 2 bytes free space at the end of the buffer */
     fb4:	27 e8       	ldi	r18, 0x87	; 135
     fb6:	30 e0       	ldi	r19, 0x00	; 0
/* usbDriverSetup() is similar to usbFunctionSetup(), but it's used for
 * standard requests instead of class and custom requests.
 */
static inline usbMsgLen_t usbDriverSetup(usbRequest_t *rq)
{
usbMsgLen_t len = 0;
     fb8:	80 e0       	ldi	r24, 0x00	; 0
     fba:	0b c0       	rjmp	.+22     	; 0xfd2 <usbPoll+0x15e>
        USB_SET_ADDRESS_HOOK();
    SWITCH_CASE(USBRQ_GET_DESCRIPTOR)       /* 6 */
        len = usbDriverDescriptor(rq);
        goto skipMsgPtrAssignment;
    SWITCH_CASE(USBRQ_GET_CONFIGURATION)    /* 8 */
        dataPtr = &usbConfiguration;  /* send current configuration value */
     fbc:	2d e9       	ldi	r18, 0x9D	; 157
     fbe:	30 e0       	ldi	r19, 0x00	; 0
        len = 1;
     fc0:	81 e0       	ldi	r24, 0x01	; 1
     fc2:	07 c0       	rjmp	.+14     	; 0xfd2 <usbPoll+0x15e>
 * standard requests instead of class and custom requests.
 */
static inline usbMsgLen_t usbDriverSetup(usbRequest_t *rq)
{
usbMsgLen_t len = 0;
uchar   *dataPtr = usbTxBuf + 9;    /* there are 2 bytes free space at the end of the buffer */
     fc4:	27 e8       	ldi	r18, 0x87	; 135
     fc6:	30 e0       	ldi	r19, 0x00	; 0
        len = 1;
    SWITCH_CASE(USBRQ_SET_CONFIGURATION)    /* 9 */
        usbConfiguration = value;
        usbResetStall();
    SWITCH_CASE(USBRQ_GET_INTERFACE)        /* 10 */
        len = 1;
     fc8:	81 e0       	ldi	r24, 0x01	; 1
     fca:	03 c0       	rjmp	.+6      	; 0xfd2 <usbPoll+0x15e>
 * standard requests instead of class and custom requests.
 */
static inline usbMsgLen_t usbDriverSetup(usbRequest_t *rq)
{
usbMsgLen_t len = 0;
uchar   *dataPtr = usbTxBuf + 9;    /* there are 2 bytes free space at the end of the buffer */
     fcc:	27 e8       	ldi	r18, 0x87	; 135
     fce:	30 e0       	ldi	r19, 0x00	; 0
/* usbDriverSetup() is similar to usbFunctionSetup(), but it's used for
 * standard requests instead of class and custom requests.
 */
static inline usbMsgLen_t usbDriverSetup(usbRequest_t *rq)
{
usbMsgLen_t len = 0;
     fd0:	80 e0       	ldi	r24, 0x00	; 0
        usbResetStall();
#endif
    SWITCH_DEFAULT                          /* 7=SET_DESCRIPTOR, 12=SYNC_FRAME */
        /* Should we add an optional hook here? */
    SWITCH_END
    usbMsgPtr = (usbMsgPtr_t)dataPtr;
     fd2:	30 93 99 00 	sts	0x0099, r19	; 0x800099 <usbMsgPtr+0x1>
     fd6:	20 93 98 00 	sts	0x0098, r18	; 0x800098 <usbMsgPtr>
            }
            usbMsgFlags = USB_FLG_USE_USER_RW;
        }else   /* The 'else' prevents that we limit a replyLen of USB_NO_MSG to the maximum transfer len. */
#endif
        if(sizeof(replyLen) < sizeof(rq->wLength.word)){ /* help compiler with optimizing */
            if(!rq->wLength.bytes[1] && replyLen > rq->wLength.bytes[0])    /* limit length to max */
     fda:	9f 81       	ldd	r25, Y+7	; 0x07
     fdc:	91 11       	cpse	r25, r1
     fde:	04 c0       	rjmp	.+8      	; 0xfe8 <usbPoll+0x174>
     fe0:	9e 81       	ldd	r25, Y+6	; 0x06
     fe2:	98 17       	cp	r25, r24
     fe4:	08 f4       	brcc	.+2      	; 0xfe8 <usbPoll+0x174>
                replyLen = rq->wLength.bytes[0];
     fe6:	89 2f       	mov	r24, r25
        }else{
            if(replyLen > rq->wLength.word)     /* limit length to max */
                replyLen = rq->wLength.word;
        }
        usbMsgLen = replyLen;
     fe8:	80 93 68 00 	sts	0x0068, r24	; 0x800068 <usbMsgLen>
        usbProcessRx(usbRxBuf + USB_BUFSIZE + 1 - usbInputBufOffset, len);
#if USB_CFG_HAVE_FLOWCONTROL
        if(usbRxLen > 0)    /* only mark as available if not inactivated */
            usbRxLen = 0;
#else
        usbRxLen = 0;       /* mark rx buffer as available */
     fec:	10 92 9a 00 	sts	0x009A, r1	; 0x80009a <usbRxLen>
#endif
    }
    if(usbTxLen & 0x10){    /* transmit system idle */
     ff0:	80 91 69 00 	lds	r24, 0x0069	; 0x800069 <usbTxLen>
     ff4:	84 ff       	sbrs	r24, 4
     ff6:	2b c0       	rjmp	.+86     	; 0x104e <usbPoll+0x1da>
        if(usbMsgLen != USB_NO_MSG){    /* transmit data pending? */
     ff8:	80 91 68 00 	lds	r24, 0x0068	; 0x800068 <usbMsgLen>
     ffc:	8f 3f       	cpi	r24, 0xFF	; 255
     ffe:	39 f1       	breq	.+78     	; 0x104e <usbPoll+0x1da>
{
usbMsgLen_t wantLen;
uchar       len;

    wantLen = usbMsgLen;
    if(wantLen > 8)
    1000:	89 30       	cpi	r24, 0x09	; 9
    1002:	10 f4       	brcc	.+4      	; 0x1008 <usbPoll+0x194>
static inline void usbBuildTxBlock(void)
{
usbMsgLen_t wantLen;
uchar       len;

    wantLen = usbMsgLen;
    1004:	68 2f       	mov	r22, r24
    1006:	01 c0       	rjmp	.+2      	; 0x100a <usbPoll+0x196>
    if(wantLen > 8)
        wantLen = 8;
    1008:	68 e0       	ldi	r22, 0x08	; 8
    usbMsgLen -= wantLen;
    100a:	86 1b       	sub	r24, r22
    100c:	80 93 68 00 	sts	0x0068, r24	; 0x800068 <usbMsgLen>
    usbTxBuf[0] ^= USBPID_DATA0 ^ USBPID_DATA1; /* DATA toggling */
    1010:	ee e7       	ldi	r30, 0x7E	; 126
    1012:	f0 e0       	ldi	r31, 0x00	; 0
    1014:	90 81       	ld	r25, Z
    1016:	88 e8       	ldi	r24, 0x88	; 136
    1018:	89 27       	eor	r24, r25
    101a:	80 83       	st	Z, r24
    len = usbDeviceRead(usbTxBuf + 1, wantLen);
    101c:	8f e7       	ldi	r24, 0x7F	; 127
    101e:	90 e0       	ldi	r25, 0x00	; 0
    1020:	0e 94 eb 06 	call	0xdd6	; 0xdd6 <usbDeviceRead>
    1024:	c8 2f       	mov	r28, r24
    if(len <= 8){           /* valid data packet */
    1026:	89 30       	cpi	r24, 0x09	; 9
    1028:	60 f4       	brcc	.+24     	; 0x1042 <usbPoll+0x1ce>
        usbCrc16Append(&usbTxBuf[1], len);
    102a:	68 2f       	mov	r22, r24
    102c:	8f e7       	ldi	r24, 0x7F	; 127
    102e:	90 e0       	ldi	r25, 0x00	; 0
    1030:	0e 94 eb 00 	call	0x1d6	; 0x1d6 <usbCrc16Append>
        len += 4;           /* length including sync byte */
    1034:	cc 5f       	subi	r28, 0xFC	; 252
        if(len < 12)        /* a partial package identifies end of message */
    1036:	cc 30       	cpi	r28, 0x0C	; 12
    1038:	40 f4       	brcc	.+16     	; 0x104a <usbPoll+0x1d6>
            usbMsgLen = USB_NO_MSG;
    103a:	8f ef       	ldi	r24, 0xFF	; 255
    103c:	80 93 68 00 	sts	0x0068, r24	; 0x800068 <usbMsgLen>
    1040:	04 c0       	rjmp	.+8      	; 0x104a <usbPoll+0x1d6>
    }else{
        len = USBPID_STALL;   /* stall the endpoint */
        usbMsgLen = USB_NO_MSG;
    1042:	8f ef       	ldi	r24, 0xFF	; 255
    1044:	80 93 68 00 	sts	0x0068, r24	; 0x800068 <usbMsgLen>
        usbCrc16Append(&usbTxBuf[1], len);
        len += 4;           /* length including sync byte */
        if(len < 12)        /* a partial package identifies end of message */
            usbMsgLen = USB_NO_MSG;
    }else{
        len = USBPID_STALL;   /* stall the endpoint */
    1048:	ce e1       	ldi	r28, 0x1E	; 30
        usbMsgLen = USB_NO_MSG;
    }
    usbTxLen = len;
    104a:	c0 93 69 00 	sts	0x0069, r28	; 0x800069 <usbTxLen>
    if(usbTxLen & 0x10){    /* transmit system idle */
        if(usbMsgLen != USB_NO_MSG){    /* transmit data pending? */
            usbBuildTxBlock();
        }
    }
    for(i = 20; i > 0; i--){
    104e:	94 e1       	ldi	r25, 0x14	; 20
    1050:	04 c0       	rjmp	.+8      	; 0x105a <usbPoll+0x1e6>
        uchar usbLineStatus = USBIN & USBMASK;
    1052:	80 b3       	in	r24, 0x10	; 16
    1054:	84 71       	andi	r24, 0x14	; 20
        if(usbLineStatus != 0)  /* SE0 has ended */
    1056:	39 f4       	brne	.+14     	; 0x1066 <usbPoll+0x1f2>
    if(usbTxLen & 0x10){    /* transmit system idle */
        if(usbMsgLen != USB_NO_MSG){    /* transmit data pending? */
            usbBuildTxBlock();
        }
    }
    for(i = 20; i > 0; i--){
    1058:	91 50       	subi	r25, 0x01	; 1
    105a:	91 11       	cpse	r25, r1
    105c:	fa cf       	rjmp	.-12     	; 0x1052 <usbPoll+0x1de>
        uchar usbLineStatus = USBIN & USBMASK;
        if(usbLineStatus != 0)  /* SE0 has ended */
            goto isNotReset;
    }
    /* RESET condition, called multiple times during reset */
    usbNewDeviceAddr = 0;
    105e:	10 92 9b 00 	sts	0x009B, r1	; 0x80009b <usbNewDeviceAddr>
    usbDeviceAddr = 0;
    1062:	10 92 95 00 	sts	0x0095, r1	; 0x800095 <usbDeviceAddr>
    usbResetStall();
    DBG1(0xff, 0, 0);
isNotReset:
    usbHandleResetHook(i);
}
    1066:	df 91       	pop	r29
    1068:	cf 91       	pop	r28
    106a:	08 95       	ret

0000106c <usbInit>:
/* ------------------------------------------------------------------------- */

USB_PUBLIC void usbInit(void)
{
#if USB_INTR_CFG_SET != 0
    USB_INTR_CFG |= USB_INTR_CFG_SET;
    106c:	85 b7       	in	r24, 0x35	; 53
    106e:	82 60       	ori	r24, 0x02	; 2
    1070:	85 bf       	out	0x35, r24	; 53
#endif
#if USB_INTR_CFG_CLR != 0
    USB_INTR_CFG &= ~(USB_INTR_CFG_CLR);
#endif
    USB_INTR_ENABLE |= (1 << USB_INTR_ENABLE_BIT);
    1072:	8b b7       	in	r24, 0x3b	; 59
    1074:	80 64       	ori	r24, 0x40	; 64
    1076:	8b bf       	out	0x3b, r24	; 59
/* ------------------------------------------------------------------------- */

static inline void  usbResetDataToggling(void)
{
#if USB_CFG_HAVE_INTRIN_ENDPOINT && !USB_CFG_SUPPRESS_INTR_CODE
    USB_SET_DATATOKEN1(USB_INITIAL_DATATOKEN);  /* reset data toggling for interrupt endpoint */
    1078:	e9 e8       	ldi	r30, 0x89	; 137
    107a:	f0 e0       	ldi	r31, 0x00	; 0
    107c:	8b e4       	ldi	r24, 0x4B	; 75
    107e:	81 83       	std	Z+1, r24	; 0x01
    USB_INTR_CFG &= ~(USB_INTR_CFG_CLR);
#endif
    USB_INTR_ENABLE |= (1 << USB_INTR_ENABLE_BIT);
    usbResetDataToggling();
#if USB_CFG_HAVE_INTRIN_ENDPOINT && !USB_CFG_SUPPRESS_INTR_CODE
    usbTxLen1 = USBPID_NAK;
    1080:	8a e5       	ldi	r24, 0x5A	; 90
    1082:	80 83       	st	Z, r24
    1084:	08 95       	ret

00001086 <__subsf3>:
    1086:	50 58       	subi	r21, 0x80	; 128

00001088 <__addsf3>:
    1088:	bb 27       	eor	r27, r27
    108a:	aa 27       	eor	r26, r26
    108c:	0e 94 5b 08 	call	0x10b6	; 0x10b6 <__addsf3x>
    1090:	0c 94 ce 09 	jmp	0x139c	; 0x139c <__fp_round>
    1094:	0e 94 c0 09 	call	0x1380	; 0x1380 <__fp_pscA>
    1098:	38 f0       	brcs	.+14     	; 0x10a8 <__addsf3+0x20>
    109a:	0e 94 c7 09 	call	0x138e	; 0x138e <__fp_pscB>
    109e:	20 f0       	brcs	.+8      	; 0x10a8 <__addsf3+0x20>
    10a0:	39 f4       	brne	.+14     	; 0x10b0 <__addsf3+0x28>
    10a2:	9f 3f       	cpi	r25, 0xFF	; 255
    10a4:	19 f4       	brne	.+6      	; 0x10ac <__addsf3+0x24>
    10a6:	26 f4       	brtc	.+8      	; 0x10b0 <__addsf3+0x28>
    10a8:	0c 94 bd 09 	jmp	0x137a	; 0x137a <__fp_nan>
    10ac:	0e f4       	brtc	.+2      	; 0x10b0 <__addsf3+0x28>
    10ae:	e0 95       	com	r30
    10b0:	e7 fb       	bst	r30, 7
    10b2:	0c 94 b7 09 	jmp	0x136e	; 0x136e <__fp_inf>

000010b6 <__addsf3x>:
    10b6:	e9 2f       	mov	r30, r25
    10b8:	0e 94 df 09 	call	0x13be	; 0x13be <__fp_split3>
    10bc:	58 f3       	brcs	.-42     	; 0x1094 <__addsf3+0xc>
    10be:	ba 17       	cp	r27, r26
    10c0:	62 07       	cpc	r22, r18
    10c2:	73 07       	cpc	r23, r19
    10c4:	84 07       	cpc	r24, r20
    10c6:	95 07       	cpc	r25, r21
    10c8:	20 f0       	brcs	.+8      	; 0x10d2 <__addsf3x+0x1c>
    10ca:	79 f4       	brne	.+30     	; 0x10ea <__addsf3x+0x34>
    10cc:	a6 f5       	brtc	.+104    	; 0x1136 <__addsf3x+0x80>
    10ce:	0c 94 01 0a 	jmp	0x1402	; 0x1402 <__fp_zero>
    10d2:	0e f4       	brtc	.+2      	; 0x10d6 <__addsf3x+0x20>
    10d4:	e0 95       	com	r30
    10d6:	0b 2e       	mov	r0, r27
    10d8:	ba 2f       	mov	r27, r26
    10da:	a0 2d       	mov	r26, r0
    10dc:	0b 01       	movw	r0, r22
    10de:	b9 01       	movw	r22, r18
    10e0:	90 01       	movw	r18, r0
    10e2:	0c 01       	movw	r0, r24
    10e4:	ca 01       	movw	r24, r20
    10e6:	a0 01       	movw	r20, r0
    10e8:	11 24       	eor	r1, r1
    10ea:	ff 27       	eor	r31, r31
    10ec:	59 1b       	sub	r21, r25
    10ee:	99 f0       	breq	.+38     	; 0x1116 <__addsf3x+0x60>
    10f0:	59 3f       	cpi	r21, 0xF9	; 249
    10f2:	50 f4       	brcc	.+20     	; 0x1108 <__addsf3x+0x52>
    10f4:	50 3e       	cpi	r21, 0xE0	; 224
    10f6:	68 f1       	brcs	.+90     	; 0x1152 <__addsf3x+0x9c>
    10f8:	1a 16       	cp	r1, r26
    10fa:	f0 40       	sbci	r31, 0x00	; 0
    10fc:	a2 2f       	mov	r26, r18
    10fe:	23 2f       	mov	r18, r19
    1100:	34 2f       	mov	r19, r20
    1102:	44 27       	eor	r20, r20
    1104:	58 5f       	subi	r21, 0xF8	; 248
    1106:	f3 cf       	rjmp	.-26     	; 0x10ee <__addsf3x+0x38>
    1108:	46 95       	lsr	r20
    110a:	37 95       	ror	r19
    110c:	27 95       	ror	r18
    110e:	a7 95       	ror	r26
    1110:	f0 40       	sbci	r31, 0x00	; 0
    1112:	53 95       	inc	r21
    1114:	c9 f7       	brne	.-14     	; 0x1108 <__addsf3x+0x52>
    1116:	7e f4       	brtc	.+30     	; 0x1136 <__addsf3x+0x80>
    1118:	1f 16       	cp	r1, r31
    111a:	ba 0b       	sbc	r27, r26
    111c:	62 0b       	sbc	r22, r18
    111e:	73 0b       	sbc	r23, r19
    1120:	84 0b       	sbc	r24, r20
    1122:	ba f0       	brmi	.+46     	; 0x1152 <__addsf3x+0x9c>
    1124:	91 50       	subi	r25, 0x01	; 1
    1126:	a1 f0       	breq	.+40     	; 0x1150 <__addsf3x+0x9a>
    1128:	ff 0f       	add	r31, r31
    112a:	bb 1f       	adc	r27, r27
    112c:	66 1f       	adc	r22, r22
    112e:	77 1f       	adc	r23, r23
    1130:	88 1f       	adc	r24, r24
    1132:	c2 f7       	brpl	.-16     	; 0x1124 <__addsf3x+0x6e>
    1134:	0e c0       	rjmp	.+28     	; 0x1152 <__addsf3x+0x9c>
    1136:	ba 0f       	add	r27, r26
    1138:	62 1f       	adc	r22, r18
    113a:	73 1f       	adc	r23, r19
    113c:	84 1f       	adc	r24, r20
    113e:	48 f4       	brcc	.+18     	; 0x1152 <__addsf3x+0x9c>
    1140:	87 95       	ror	r24
    1142:	77 95       	ror	r23
    1144:	67 95       	ror	r22
    1146:	b7 95       	ror	r27
    1148:	f7 95       	ror	r31
    114a:	9e 3f       	cpi	r25, 0xFE	; 254
    114c:	08 f0       	brcs	.+2      	; 0x1150 <__addsf3x+0x9a>
    114e:	b0 cf       	rjmp	.-160    	; 0x10b0 <__addsf3+0x28>
    1150:	93 95       	inc	r25
    1152:	88 0f       	add	r24, r24
    1154:	08 f0       	brcs	.+2      	; 0x1158 <__addsf3x+0xa2>
    1156:	99 27       	eor	r25, r25
    1158:	ee 0f       	add	r30, r30
    115a:	97 95       	ror	r25
    115c:	87 95       	ror	r24
    115e:	08 95       	ret

00001160 <__cmpsf2>:
    1160:	0e 94 93 09 	call	0x1326	; 0x1326 <__fp_cmp>
    1164:	08 f4       	brcc	.+2      	; 0x1168 <__cmpsf2+0x8>
    1166:	81 e0       	ldi	r24, 0x01	; 1
    1168:	08 95       	ret

0000116a <__divsf3>:
    116a:	0e 94 c9 08 	call	0x1192	; 0x1192 <__divsf3x>
    116e:	0c 94 ce 09 	jmp	0x139c	; 0x139c <__fp_round>
    1172:	0e 94 c7 09 	call	0x138e	; 0x138e <__fp_pscB>
    1176:	58 f0       	brcs	.+22     	; 0x118e <__divsf3+0x24>
    1178:	0e 94 c0 09 	call	0x1380	; 0x1380 <__fp_pscA>
    117c:	40 f0       	brcs	.+16     	; 0x118e <__divsf3+0x24>
    117e:	29 f4       	brne	.+10     	; 0x118a <__divsf3+0x20>
    1180:	5f 3f       	cpi	r21, 0xFF	; 255
    1182:	29 f0       	breq	.+10     	; 0x118e <__divsf3+0x24>
    1184:	0c 94 b7 09 	jmp	0x136e	; 0x136e <__fp_inf>
    1188:	51 11       	cpse	r21, r1
    118a:	0c 94 02 0a 	jmp	0x1404	; 0x1404 <__fp_szero>
    118e:	0c 94 bd 09 	jmp	0x137a	; 0x137a <__fp_nan>

00001192 <__divsf3x>:
    1192:	0e 94 df 09 	call	0x13be	; 0x13be <__fp_split3>
    1196:	68 f3       	brcs	.-38     	; 0x1172 <__divsf3+0x8>

00001198 <__divsf3_pse>:
    1198:	99 23       	and	r25, r25
    119a:	b1 f3       	breq	.-20     	; 0x1188 <__divsf3+0x1e>
    119c:	55 23       	and	r21, r21
    119e:	91 f3       	breq	.-28     	; 0x1184 <__divsf3+0x1a>
    11a0:	95 1b       	sub	r25, r21
    11a2:	55 0b       	sbc	r21, r21
    11a4:	bb 27       	eor	r27, r27
    11a6:	aa 27       	eor	r26, r26
    11a8:	62 17       	cp	r22, r18
    11aa:	73 07       	cpc	r23, r19
    11ac:	84 07       	cpc	r24, r20
    11ae:	38 f0       	brcs	.+14     	; 0x11be <__divsf3_pse+0x26>
    11b0:	9f 5f       	subi	r25, 0xFF	; 255
    11b2:	5f 4f       	sbci	r21, 0xFF	; 255
    11b4:	22 0f       	add	r18, r18
    11b6:	33 1f       	adc	r19, r19
    11b8:	44 1f       	adc	r20, r20
    11ba:	aa 1f       	adc	r26, r26
    11bc:	a9 f3       	breq	.-22     	; 0x11a8 <__divsf3_pse+0x10>
    11be:	35 d0       	rcall	.+106    	; 0x122a <__divsf3_pse+0x92>
    11c0:	0e 2e       	mov	r0, r30
    11c2:	3a f0       	brmi	.+14     	; 0x11d2 <__divsf3_pse+0x3a>
    11c4:	e0 e8       	ldi	r30, 0x80	; 128
    11c6:	32 d0       	rcall	.+100    	; 0x122c <__divsf3_pse+0x94>
    11c8:	91 50       	subi	r25, 0x01	; 1
    11ca:	50 40       	sbci	r21, 0x00	; 0
    11cc:	e6 95       	lsr	r30
    11ce:	00 1c       	adc	r0, r0
    11d0:	ca f7       	brpl	.-14     	; 0x11c4 <__divsf3_pse+0x2c>
    11d2:	2b d0       	rcall	.+86     	; 0x122a <__divsf3_pse+0x92>
    11d4:	fe 2f       	mov	r31, r30
    11d6:	29 d0       	rcall	.+82     	; 0x122a <__divsf3_pse+0x92>
    11d8:	66 0f       	add	r22, r22
    11da:	77 1f       	adc	r23, r23
    11dc:	88 1f       	adc	r24, r24
    11de:	bb 1f       	adc	r27, r27
    11e0:	26 17       	cp	r18, r22
    11e2:	37 07       	cpc	r19, r23
    11e4:	48 07       	cpc	r20, r24
    11e6:	ab 07       	cpc	r26, r27
    11e8:	b0 e8       	ldi	r27, 0x80	; 128
    11ea:	09 f0       	breq	.+2      	; 0x11ee <__divsf3_pse+0x56>
    11ec:	bb 0b       	sbc	r27, r27
    11ee:	80 2d       	mov	r24, r0
    11f0:	bf 01       	movw	r22, r30
    11f2:	ff 27       	eor	r31, r31
    11f4:	93 58       	subi	r25, 0x83	; 131
    11f6:	5f 4f       	sbci	r21, 0xFF	; 255
    11f8:	3a f0       	brmi	.+14     	; 0x1208 <__divsf3_pse+0x70>
    11fa:	9e 3f       	cpi	r25, 0xFE	; 254
    11fc:	51 05       	cpc	r21, r1
    11fe:	78 f0       	brcs	.+30     	; 0x121e <__divsf3_pse+0x86>
    1200:	0c 94 b7 09 	jmp	0x136e	; 0x136e <__fp_inf>
    1204:	0c 94 02 0a 	jmp	0x1404	; 0x1404 <__fp_szero>
    1208:	5f 3f       	cpi	r21, 0xFF	; 255
    120a:	e4 f3       	brlt	.-8      	; 0x1204 <__divsf3_pse+0x6c>
    120c:	98 3e       	cpi	r25, 0xE8	; 232
    120e:	d4 f3       	brlt	.-12     	; 0x1204 <__divsf3_pse+0x6c>
    1210:	86 95       	lsr	r24
    1212:	77 95       	ror	r23
    1214:	67 95       	ror	r22
    1216:	b7 95       	ror	r27
    1218:	f7 95       	ror	r31
    121a:	9f 5f       	subi	r25, 0xFF	; 255
    121c:	c9 f7       	brne	.-14     	; 0x1210 <__divsf3_pse+0x78>
    121e:	88 0f       	add	r24, r24
    1220:	91 1d       	adc	r25, r1
    1222:	96 95       	lsr	r25
    1224:	87 95       	ror	r24
    1226:	97 f9       	bld	r25, 7
    1228:	08 95       	ret
    122a:	e1 e0       	ldi	r30, 0x01	; 1
    122c:	66 0f       	add	r22, r22
    122e:	77 1f       	adc	r23, r23
    1230:	88 1f       	adc	r24, r24
    1232:	bb 1f       	adc	r27, r27
    1234:	62 17       	cp	r22, r18
    1236:	73 07       	cpc	r23, r19
    1238:	84 07       	cpc	r24, r20
    123a:	ba 07       	cpc	r27, r26
    123c:	20 f0       	brcs	.+8      	; 0x1246 <__divsf3_pse+0xae>
    123e:	62 1b       	sub	r22, r18
    1240:	73 0b       	sbc	r23, r19
    1242:	84 0b       	sbc	r24, r20
    1244:	ba 0b       	sbc	r27, r26
    1246:	ee 1f       	adc	r30, r30
    1248:	88 f7       	brcc	.-30     	; 0x122c <__divsf3_pse+0x94>
    124a:	e0 95       	com	r30
    124c:	08 95       	ret

0000124e <__fixunssfsi>:
    124e:	0e 94 e7 09 	call	0x13ce	; 0x13ce <__fp_splitA>
    1252:	88 f0       	brcs	.+34     	; 0x1276 <__fixunssfsi+0x28>
    1254:	9f 57       	subi	r25, 0x7F	; 127
    1256:	98 f0       	brcs	.+38     	; 0x127e <__fixunssfsi+0x30>
    1258:	b9 2f       	mov	r27, r25
    125a:	99 27       	eor	r25, r25
    125c:	b7 51       	subi	r27, 0x17	; 23
    125e:	b0 f0       	brcs	.+44     	; 0x128c <__fixunssfsi+0x3e>
    1260:	e1 f0       	breq	.+56     	; 0x129a <__fixunssfsi+0x4c>
    1262:	66 0f       	add	r22, r22
    1264:	77 1f       	adc	r23, r23
    1266:	88 1f       	adc	r24, r24
    1268:	99 1f       	adc	r25, r25
    126a:	1a f0       	brmi	.+6      	; 0x1272 <__fixunssfsi+0x24>
    126c:	ba 95       	dec	r27
    126e:	c9 f7       	brne	.-14     	; 0x1262 <__fixunssfsi+0x14>
    1270:	14 c0       	rjmp	.+40     	; 0x129a <__fixunssfsi+0x4c>
    1272:	b1 30       	cpi	r27, 0x01	; 1
    1274:	91 f0       	breq	.+36     	; 0x129a <__fixunssfsi+0x4c>
    1276:	0e 94 01 0a 	call	0x1402	; 0x1402 <__fp_zero>
    127a:	b1 e0       	ldi	r27, 0x01	; 1
    127c:	08 95       	ret
    127e:	0c 94 01 0a 	jmp	0x1402	; 0x1402 <__fp_zero>
    1282:	67 2f       	mov	r22, r23
    1284:	78 2f       	mov	r23, r24
    1286:	88 27       	eor	r24, r24
    1288:	b8 5f       	subi	r27, 0xF8	; 248
    128a:	39 f0       	breq	.+14     	; 0x129a <__fixunssfsi+0x4c>
    128c:	b9 3f       	cpi	r27, 0xF9	; 249
    128e:	cc f3       	brlt	.-14     	; 0x1282 <__fixunssfsi+0x34>
    1290:	86 95       	lsr	r24
    1292:	77 95       	ror	r23
    1294:	67 95       	ror	r22
    1296:	b3 95       	inc	r27
    1298:	d9 f7       	brne	.-10     	; 0x1290 <__fixunssfsi+0x42>
    129a:	3e f4       	brtc	.+14     	; 0x12aa <__fixunssfsi+0x5c>
    129c:	90 95       	com	r25
    129e:	80 95       	com	r24
    12a0:	70 95       	com	r23
    12a2:	61 95       	neg	r22
    12a4:	7f 4f       	sbci	r23, 0xFF	; 255
    12a6:	8f 4f       	sbci	r24, 0xFF	; 255
    12a8:	9f 4f       	sbci	r25, 0xFF	; 255
    12aa:	08 95       	ret

000012ac <__floatunsisf>:
    12ac:	e8 94       	clt
    12ae:	09 c0       	rjmp	.+18     	; 0x12c2 <__floatsisf+0x12>

000012b0 <__floatsisf>:
    12b0:	97 fb       	bst	r25, 7
    12b2:	3e f4       	brtc	.+14     	; 0x12c2 <__floatsisf+0x12>
    12b4:	90 95       	com	r25
    12b6:	80 95       	com	r24
    12b8:	70 95       	com	r23
    12ba:	61 95       	neg	r22
    12bc:	7f 4f       	sbci	r23, 0xFF	; 255
    12be:	8f 4f       	sbci	r24, 0xFF	; 255
    12c0:	9f 4f       	sbci	r25, 0xFF	; 255
    12c2:	99 23       	and	r25, r25
    12c4:	a9 f0       	breq	.+42     	; 0x12f0 <__floatsisf+0x40>
    12c6:	f9 2f       	mov	r31, r25
    12c8:	96 e9       	ldi	r25, 0x96	; 150
    12ca:	bb 27       	eor	r27, r27
    12cc:	93 95       	inc	r25
    12ce:	f6 95       	lsr	r31
    12d0:	87 95       	ror	r24
    12d2:	77 95       	ror	r23
    12d4:	67 95       	ror	r22
    12d6:	b7 95       	ror	r27
    12d8:	f1 11       	cpse	r31, r1
    12da:	f8 cf       	rjmp	.-16     	; 0x12cc <__floatsisf+0x1c>
    12dc:	fa f4       	brpl	.+62     	; 0x131c <__floatsisf+0x6c>
    12de:	bb 0f       	add	r27, r27
    12e0:	11 f4       	brne	.+4      	; 0x12e6 <__floatsisf+0x36>
    12e2:	60 ff       	sbrs	r22, 0
    12e4:	1b c0       	rjmp	.+54     	; 0x131c <__floatsisf+0x6c>
    12e6:	6f 5f       	subi	r22, 0xFF	; 255
    12e8:	7f 4f       	sbci	r23, 0xFF	; 255
    12ea:	8f 4f       	sbci	r24, 0xFF	; 255
    12ec:	9f 4f       	sbci	r25, 0xFF	; 255
    12ee:	16 c0       	rjmp	.+44     	; 0x131c <__floatsisf+0x6c>
    12f0:	88 23       	and	r24, r24
    12f2:	11 f0       	breq	.+4      	; 0x12f8 <__floatsisf+0x48>
    12f4:	96 e9       	ldi	r25, 0x96	; 150
    12f6:	11 c0       	rjmp	.+34     	; 0x131a <__floatsisf+0x6a>
    12f8:	77 23       	and	r23, r23
    12fa:	21 f0       	breq	.+8      	; 0x1304 <__floatsisf+0x54>
    12fc:	9e e8       	ldi	r25, 0x8E	; 142
    12fe:	87 2f       	mov	r24, r23
    1300:	76 2f       	mov	r23, r22
    1302:	05 c0       	rjmp	.+10     	; 0x130e <__floatsisf+0x5e>
    1304:	66 23       	and	r22, r22
    1306:	71 f0       	breq	.+28     	; 0x1324 <__floatsisf+0x74>
    1308:	96 e8       	ldi	r25, 0x86	; 134
    130a:	86 2f       	mov	r24, r22
    130c:	70 e0       	ldi	r23, 0x00	; 0
    130e:	60 e0       	ldi	r22, 0x00	; 0
    1310:	2a f0       	brmi	.+10     	; 0x131c <__floatsisf+0x6c>
    1312:	9a 95       	dec	r25
    1314:	66 0f       	add	r22, r22
    1316:	77 1f       	adc	r23, r23
    1318:	88 1f       	adc	r24, r24
    131a:	da f7       	brpl	.-10     	; 0x1312 <__floatsisf+0x62>
    131c:	88 0f       	add	r24, r24
    131e:	96 95       	lsr	r25
    1320:	87 95       	ror	r24
    1322:	97 f9       	bld	r25, 7
    1324:	08 95       	ret

00001326 <__fp_cmp>:
    1326:	99 0f       	add	r25, r25
    1328:	00 08       	sbc	r0, r0
    132a:	55 0f       	add	r21, r21
    132c:	aa 0b       	sbc	r26, r26
    132e:	e0 e8       	ldi	r30, 0x80	; 128
    1330:	fe ef       	ldi	r31, 0xFE	; 254
    1332:	16 16       	cp	r1, r22
    1334:	17 06       	cpc	r1, r23
    1336:	e8 07       	cpc	r30, r24
    1338:	f9 07       	cpc	r31, r25
    133a:	c0 f0       	brcs	.+48     	; 0x136c <__fp_cmp+0x46>
    133c:	12 16       	cp	r1, r18
    133e:	13 06       	cpc	r1, r19
    1340:	e4 07       	cpc	r30, r20
    1342:	f5 07       	cpc	r31, r21
    1344:	98 f0       	brcs	.+38     	; 0x136c <__fp_cmp+0x46>
    1346:	62 1b       	sub	r22, r18
    1348:	73 0b       	sbc	r23, r19
    134a:	84 0b       	sbc	r24, r20
    134c:	95 0b       	sbc	r25, r21
    134e:	39 f4       	brne	.+14     	; 0x135e <__fp_cmp+0x38>
    1350:	0a 26       	eor	r0, r26
    1352:	61 f0       	breq	.+24     	; 0x136c <__fp_cmp+0x46>
    1354:	23 2b       	or	r18, r19
    1356:	24 2b       	or	r18, r20
    1358:	25 2b       	or	r18, r21
    135a:	21 f4       	brne	.+8      	; 0x1364 <__fp_cmp+0x3e>
    135c:	08 95       	ret
    135e:	0a 26       	eor	r0, r26
    1360:	09 f4       	brne	.+2      	; 0x1364 <__fp_cmp+0x3e>
    1362:	a1 40       	sbci	r26, 0x01	; 1
    1364:	a6 95       	lsr	r26
    1366:	8f ef       	ldi	r24, 0xFF	; 255
    1368:	81 1d       	adc	r24, r1
    136a:	81 1d       	adc	r24, r1
    136c:	08 95       	ret

0000136e <__fp_inf>:
    136e:	97 f9       	bld	r25, 7
    1370:	9f 67       	ori	r25, 0x7F	; 127
    1372:	80 e8       	ldi	r24, 0x80	; 128
    1374:	70 e0       	ldi	r23, 0x00	; 0
    1376:	60 e0       	ldi	r22, 0x00	; 0
    1378:	08 95       	ret

0000137a <__fp_nan>:
    137a:	9f ef       	ldi	r25, 0xFF	; 255
    137c:	80 ec       	ldi	r24, 0xC0	; 192
    137e:	08 95       	ret

00001380 <__fp_pscA>:
    1380:	00 24       	eor	r0, r0
    1382:	0a 94       	dec	r0
    1384:	16 16       	cp	r1, r22
    1386:	17 06       	cpc	r1, r23
    1388:	18 06       	cpc	r1, r24
    138a:	09 06       	cpc	r0, r25
    138c:	08 95       	ret

0000138e <__fp_pscB>:
    138e:	00 24       	eor	r0, r0
    1390:	0a 94       	dec	r0
    1392:	12 16       	cp	r1, r18
    1394:	13 06       	cpc	r1, r19
    1396:	14 06       	cpc	r1, r20
    1398:	05 06       	cpc	r0, r21
    139a:	08 95       	ret

0000139c <__fp_round>:
    139c:	09 2e       	mov	r0, r25
    139e:	03 94       	inc	r0
    13a0:	00 0c       	add	r0, r0
    13a2:	11 f4       	brne	.+4      	; 0x13a8 <__fp_round+0xc>
    13a4:	88 23       	and	r24, r24
    13a6:	52 f0       	brmi	.+20     	; 0x13bc <__fp_round+0x20>
    13a8:	bb 0f       	add	r27, r27
    13aa:	40 f4       	brcc	.+16     	; 0x13bc <__fp_round+0x20>
    13ac:	bf 2b       	or	r27, r31
    13ae:	11 f4       	brne	.+4      	; 0x13b4 <__fp_round+0x18>
    13b0:	60 ff       	sbrs	r22, 0
    13b2:	04 c0       	rjmp	.+8      	; 0x13bc <__fp_round+0x20>
    13b4:	6f 5f       	subi	r22, 0xFF	; 255
    13b6:	7f 4f       	sbci	r23, 0xFF	; 255
    13b8:	8f 4f       	sbci	r24, 0xFF	; 255
    13ba:	9f 4f       	sbci	r25, 0xFF	; 255
    13bc:	08 95       	ret

000013be <__fp_split3>:
    13be:	57 fd       	sbrc	r21, 7
    13c0:	90 58       	subi	r25, 0x80	; 128
    13c2:	44 0f       	add	r20, r20
    13c4:	55 1f       	adc	r21, r21
    13c6:	59 f0       	breq	.+22     	; 0x13de <__fp_splitA+0x10>
    13c8:	5f 3f       	cpi	r21, 0xFF	; 255
    13ca:	71 f0       	breq	.+28     	; 0x13e8 <__fp_splitA+0x1a>
    13cc:	47 95       	ror	r20

000013ce <__fp_splitA>:
    13ce:	88 0f       	add	r24, r24
    13d0:	97 fb       	bst	r25, 7
    13d2:	99 1f       	adc	r25, r25
    13d4:	61 f0       	breq	.+24     	; 0x13ee <__fp_splitA+0x20>
    13d6:	9f 3f       	cpi	r25, 0xFF	; 255
    13d8:	79 f0       	breq	.+30     	; 0x13f8 <__fp_splitA+0x2a>
    13da:	87 95       	ror	r24
    13dc:	08 95       	ret
    13de:	12 16       	cp	r1, r18
    13e0:	13 06       	cpc	r1, r19
    13e2:	14 06       	cpc	r1, r20
    13e4:	55 1f       	adc	r21, r21
    13e6:	f2 cf       	rjmp	.-28     	; 0x13cc <__fp_split3+0xe>
    13e8:	46 95       	lsr	r20
    13ea:	f1 df       	rcall	.-30     	; 0x13ce <__fp_splitA>
    13ec:	08 c0       	rjmp	.+16     	; 0x13fe <__fp_splitA+0x30>
    13ee:	16 16       	cp	r1, r22
    13f0:	17 06       	cpc	r1, r23
    13f2:	18 06       	cpc	r1, r24
    13f4:	99 1f       	adc	r25, r25
    13f6:	f1 cf       	rjmp	.-30     	; 0x13da <__fp_splitA+0xc>
    13f8:	86 95       	lsr	r24
    13fa:	71 05       	cpc	r23, r1
    13fc:	61 05       	cpc	r22, r1
    13fe:	08 94       	sec
    1400:	08 95       	ret

00001402 <__fp_zero>:
    1402:	e8 94       	clt

00001404 <__fp_szero>:
    1404:	bb 27       	eor	r27, r27
    1406:	66 27       	eor	r22, r22
    1408:	77 27       	eor	r23, r23
    140a:	cb 01       	movw	r24, r22
    140c:	97 f9       	bld	r25, 7
    140e:	08 95       	ret

00001410 <__mulsf3>:
    1410:	0e 94 1b 0a 	call	0x1436	; 0x1436 <__mulsf3x>
    1414:	0c 94 ce 09 	jmp	0x139c	; 0x139c <__fp_round>
    1418:	0e 94 c0 09 	call	0x1380	; 0x1380 <__fp_pscA>
    141c:	38 f0       	brcs	.+14     	; 0x142c <__mulsf3+0x1c>
    141e:	0e 94 c7 09 	call	0x138e	; 0x138e <__fp_pscB>
    1422:	20 f0       	brcs	.+8      	; 0x142c <__mulsf3+0x1c>
    1424:	95 23       	and	r25, r21
    1426:	11 f0       	breq	.+4      	; 0x142c <__mulsf3+0x1c>
    1428:	0c 94 b7 09 	jmp	0x136e	; 0x136e <__fp_inf>
    142c:	0c 94 bd 09 	jmp	0x137a	; 0x137a <__fp_nan>
    1430:	11 24       	eor	r1, r1
    1432:	0c 94 02 0a 	jmp	0x1404	; 0x1404 <__fp_szero>

00001436 <__mulsf3x>:
    1436:	0e 94 df 09 	call	0x13be	; 0x13be <__fp_split3>
    143a:	70 f3       	brcs	.-36     	; 0x1418 <__mulsf3+0x8>

0000143c <__mulsf3_pse>:
    143c:	95 9f       	mul	r25, r21
    143e:	c1 f3       	breq	.-16     	; 0x1430 <__mulsf3+0x20>
    1440:	95 0f       	add	r25, r21
    1442:	50 e0       	ldi	r21, 0x00	; 0
    1444:	55 1f       	adc	r21, r21
    1446:	62 9f       	mul	r22, r18
    1448:	f0 01       	movw	r30, r0
    144a:	72 9f       	mul	r23, r18
    144c:	bb 27       	eor	r27, r27
    144e:	f0 0d       	add	r31, r0
    1450:	b1 1d       	adc	r27, r1
    1452:	63 9f       	mul	r22, r19
    1454:	aa 27       	eor	r26, r26
    1456:	f0 0d       	add	r31, r0
    1458:	b1 1d       	adc	r27, r1
    145a:	aa 1f       	adc	r26, r26
    145c:	64 9f       	mul	r22, r20
    145e:	66 27       	eor	r22, r22
    1460:	b0 0d       	add	r27, r0
    1462:	a1 1d       	adc	r26, r1
    1464:	66 1f       	adc	r22, r22
    1466:	82 9f       	mul	r24, r18
    1468:	22 27       	eor	r18, r18
    146a:	b0 0d       	add	r27, r0
    146c:	a1 1d       	adc	r26, r1
    146e:	62 1f       	adc	r22, r18
    1470:	73 9f       	mul	r23, r19
    1472:	b0 0d       	add	r27, r0
    1474:	a1 1d       	adc	r26, r1
    1476:	62 1f       	adc	r22, r18
    1478:	83 9f       	mul	r24, r19
    147a:	a0 0d       	add	r26, r0
    147c:	61 1d       	adc	r22, r1
    147e:	22 1f       	adc	r18, r18
    1480:	74 9f       	mul	r23, r20
    1482:	33 27       	eor	r19, r19
    1484:	a0 0d       	add	r26, r0
    1486:	61 1d       	adc	r22, r1
    1488:	23 1f       	adc	r18, r19
    148a:	84 9f       	mul	r24, r20
    148c:	60 0d       	add	r22, r0
    148e:	21 1d       	adc	r18, r1
    1490:	82 2f       	mov	r24, r18
    1492:	76 2f       	mov	r23, r22
    1494:	6a 2f       	mov	r22, r26
    1496:	11 24       	eor	r1, r1
    1498:	9f 57       	subi	r25, 0x7F	; 127
    149a:	50 40       	sbci	r21, 0x00	; 0
    149c:	9a f0       	brmi	.+38     	; 0x14c4 <__mulsf3_pse+0x88>
    149e:	f1 f0       	breq	.+60     	; 0x14dc <__mulsf3_pse+0xa0>
    14a0:	88 23       	and	r24, r24
    14a2:	4a f0       	brmi	.+18     	; 0x14b6 <__mulsf3_pse+0x7a>
    14a4:	ee 0f       	add	r30, r30
    14a6:	ff 1f       	adc	r31, r31
    14a8:	bb 1f       	adc	r27, r27
    14aa:	66 1f       	adc	r22, r22
    14ac:	77 1f       	adc	r23, r23
    14ae:	88 1f       	adc	r24, r24
    14b0:	91 50       	subi	r25, 0x01	; 1
    14b2:	50 40       	sbci	r21, 0x00	; 0
    14b4:	a9 f7       	brne	.-22     	; 0x14a0 <__mulsf3_pse+0x64>
    14b6:	9e 3f       	cpi	r25, 0xFE	; 254
    14b8:	51 05       	cpc	r21, r1
    14ba:	80 f0       	brcs	.+32     	; 0x14dc <__mulsf3_pse+0xa0>
    14bc:	0c 94 b7 09 	jmp	0x136e	; 0x136e <__fp_inf>
    14c0:	0c 94 02 0a 	jmp	0x1404	; 0x1404 <__fp_szero>
    14c4:	5f 3f       	cpi	r21, 0xFF	; 255
    14c6:	e4 f3       	brlt	.-8      	; 0x14c0 <__mulsf3_pse+0x84>
    14c8:	98 3e       	cpi	r25, 0xE8	; 232
    14ca:	d4 f3       	brlt	.-12     	; 0x14c0 <__mulsf3_pse+0x84>
    14cc:	86 95       	lsr	r24
    14ce:	77 95       	ror	r23
    14d0:	67 95       	ror	r22
    14d2:	b7 95       	ror	r27
    14d4:	f7 95       	ror	r31
    14d6:	e7 95       	ror	r30
    14d8:	9f 5f       	subi	r25, 0xFF	; 255
    14da:	c1 f7       	brne	.-16     	; 0x14cc <__mulsf3_pse+0x90>
    14dc:	fe 2b       	or	r31, r30
    14de:	88 0f       	add	r24, r24
    14e0:	91 1d       	adc	r25, r1
    14e2:	96 95       	lsr	r25
    14e4:	87 95       	ror	r24
    14e6:	97 f9       	bld	r25, 7
    14e8:	08 95       	ret

000014ea <pow>:
    14ea:	fa 01       	movw	r30, r20
    14ec:	ee 0f       	add	r30, r30
    14ee:	ff 1f       	adc	r31, r31
    14f0:	30 96       	adiw	r30, 0x00	; 0
    14f2:	21 05       	cpc	r18, r1
    14f4:	31 05       	cpc	r19, r1
    14f6:	a1 f1       	breq	.+104    	; 0x1560 <pow+0x76>
    14f8:	61 15       	cp	r22, r1
    14fa:	71 05       	cpc	r23, r1
    14fc:	61 f4       	brne	.+24     	; 0x1516 <pow+0x2c>
    14fe:	80 38       	cpi	r24, 0x80	; 128
    1500:	bf e3       	ldi	r27, 0x3F	; 63
    1502:	9b 07       	cpc	r25, r27
    1504:	49 f1       	breq	.+82     	; 0x1558 <pow+0x6e>
    1506:	68 94       	set
    1508:	90 38       	cpi	r25, 0x80	; 128
    150a:	81 05       	cpc	r24, r1
    150c:	61 f0       	breq	.+24     	; 0x1526 <pow+0x3c>
    150e:	80 38       	cpi	r24, 0x80	; 128
    1510:	bf ef       	ldi	r27, 0xFF	; 255
    1512:	9b 07       	cpc	r25, r27
    1514:	41 f0       	breq	.+16     	; 0x1526 <pow+0x3c>
    1516:	99 23       	and	r25, r25
    1518:	4a f5       	brpl	.+82     	; 0x156c <pow+0x82>
    151a:	ff 3f       	cpi	r31, 0xFF	; 255
    151c:	e1 05       	cpc	r30, r1
    151e:	31 05       	cpc	r19, r1
    1520:	21 05       	cpc	r18, r1
    1522:	19 f1       	breq	.+70     	; 0x156a <pow+0x80>
    1524:	e8 94       	clt
    1526:	08 94       	sec
    1528:	e7 95       	ror	r30
    152a:	d9 01       	movw	r26, r18
    152c:	aa 23       	and	r26, r26
    152e:	29 f4       	brne	.+10     	; 0x153a <pow+0x50>
    1530:	ab 2f       	mov	r26, r27
    1532:	be 2f       	mov	r27, r30
    1534:	f8 5f       	subi	r31, 0xF8	; 248
    1536:	d0 f3       	brcs	.-12     	; 0x152c <pow+0x42>
    1538:	10 c0       	rjmp	.+32     	; 0x155a <pow+0x70>
    153a:	ff 5f       	subi	r31, 0xFF	; 255
    153c:	70 f4       	brcc	.+28     	; 0x155a <pow+0x70>
    153e:	a6 95       	lsr	r26
    1540:	e0 f7       	brcc	.-8      	; 0x153a <pow+0x50>
    1542:	f7 39       	cpi	r31, 0x97	; 151
    1544:	50 f0       	brcs	.+20     	; 0x155a <pow+0x70>
    1546:	19 f0       	breq	.+6      	; 0x154e <pow+0x64>
    1548:	ff 3a       	cpi	r31, 0xAF	; 175
    154a:	38 f4       	brcc	.+14     	; 0x155a <pow+0x70>
    154c:	9f 77       	andi	r25, 0x7F	; 127
    154e:	9f 93       	push	r25
    1550:	0d d0       	rcall	.+26     	; 0x156c <pow+0x82>
    1552:	0f 90       	pop	r0
    1554:	07 fc       	sbrc	r0, 7
    1556:	90 58       	subi	r25, 0x80	; 128
    1558:	08 95       	ret
    155a:	46 f0       	brts	.+16     	; 0x156c <pow+0x82>
    155c:	0c 94 bd 09 	jmp	0x137a	; 0x137a <__fp_nan>
    1560:	60 e0       	ldi	r22, 0x00	; 0
    1562:	70 e0       	ldi	r23, 0x00	; 0
    1564:	80 e8       	ldi	r24, 0x80	; 128
    1566:	9f e3       	ldi	r25, 0x3F	; 63
    1568:	08 95       	ret
    156a:	4f e7       	ldi	r20, 0x7F	; 127
    156c:	9f 77       	andi	r25, 0x7F	; 127
    156e:	5f 93       	push	r21
    1570:	4f 93       	push	r20
    1572:	3f 93       	push	r19
    1574:	2f 93       	push	r18
    1576:	0e 94 70 0b 	call	0x16e0	; 0x16e0 <log>
    157a:	2f 91       	pop	r18
    157c:	3f 91       	pop	r19
    157e:	4f 91       	pop	r20
    1580:	5f 91       	pop	r21
    1582:	0e 94 08 0a 	call	0x1410	; 0x1410 <__mulsf3>
    1586:	0c 94 cd 0a 	jmp	0x159a	; 0x159a <exp>
    158a:	29 f4       	brne	.+10     	; 0x1596 <pow+0xac>
    158c:	16 f0       	brts	.+4      	; 0x1592 <pow+0xa8>
    158e:	0c 94 b7 09 	jmp	0x136e	; 0x136e <__fp_inf>
    1592:	0c 94 01 0a 	jmp	0x1402	; 0x1402 <__fp_zero>
    1596:	0c 94 bd 09 	jmp	0x137a	; 0x137a <__fp_nan>

0000159a <exp>:
    159a:	0e 94 e7 09 	call	0x13ce	; 0x13ce <__fp_splitA>
    159e:	a8 f3       	brcs	.-22     	; 0x158a <pow+0xa0>
    15a0:	96 38       	cpi	r25, 0x86	; 134
    15a2:	a0 f7       	brcc	.-24     	; 0x158c <pow+0xa2>
    15a4:	07 f8       	bld	r0, 7
    15a6:	0f 92       	push	r0
    15a8:	e8 94       	clt
    15aa:	2b e3       	ldi	r18, 0x3B	; 59
    15ac:	3a ea       	ldi	r19, 0xAA	; 170
    15ae:	48 eb       	ldi	r20, 0xB8	; 184
    15b0:	5f e7       	ldi	r21, 0x7F	; 127
    15b2:	0e 94 1e 0a 	call	0x143c	; 0x143c <__mulsf3_pse>
    15b6:	0f 92       	push	r0
    15b8:	0f 92       	push	r0
    15ba:	0f 92       	push	r0
    15bc:	4d b7       	in	r20, 0x3d	; 61
    15be:	5e b7       	in	r21, 0x3e	; 62
    15c0:	0f 92       	push	r0
    15c2:	0e 94 b8 0b 	call	0x1770	; 0x1770 <modf>
    15c6:	e2 e6       	ldi	r30, 0x62	; 98
    15c8:	f0 e0       	ldi	r31, 0x00	; 0
    15ca:	0e 94 ff 0a 	call	0x15fe	; 0x15fe <__fp_powser>
    15ce:	4f 91       	pop	r20
    15d0:	5f 91       	pop	r21
    15d2:	ef 91       	pop	r30
    15d4:	ff 91       	pop	r31
    15d6:	e5 95       	asr	r30
    15d8:	ee 1f       	adc	r30, r30
    15da:	ff 1f       	adc	r31, r31
    15dc:	49 f0       	breq	.+18     	; 0x15f0 <exp+0x56>
    15de:	fe 57       	subi	r31, 0x7E	; 126
    15e0:	e0 68       	ori	r30, 0x80	; 128
    15e2:	44 27       	eor	r20, r20
    15e4:	ee 0f       	add	r30, r30
    15e6:	44 1f       	adc	r20, r20
    15e8:	fa 95       	dec	r31
    15ea:	e1 f7       	brne	.-8      	; 0x15e4 <exp+0x4a>
    15ec:	41 95       	neg	r20
    15ee:	55 0b       	sbc	r21, r21
    15f0:	0e 94 32 0b 	call	0x1664	; 0x1664 <ldexp>
    15f4:	0f 90       	pop	r0
    15f6:	07 fe       	sbrs	r0, 7
    15f8:	0c 94 26 0b 	jmp	0x164c	; 0x164c <inverse>
    15fc:	08 95       	ret

000015fe <__fp_powser>:
    15fe:	df 93       	push	r29
    1600:	cf 93       	push	r28
    1602:	1f 93       	push	r17
    1604:	0f 93       	push	r16
    1606:	ff 92       	push	r15
    1608:	ef 92       	push	r14
    160a:	df 92       	push	r13
    160c:	7b 01       	movw	r14, r22
    160e:	8c 01       	movw	r16, r24
    1610:	68 94       	set
    1612:	06 c0       	rjmp	.+12     	; 0x1620 <__fp_powser+0x22>
    1614:	da 2e       	mov	r13, r26
    1616:	ef 01       	movw	r28, r30
    1618:	0e 94 1b 0a 	call	0x1436	; 0x1436 <__mulsf3x>
    161c:	fe 01       	movw	r30, r28
    161e:	e8 94       	clt
    1620:	a5 91       	lpm	r26, Z+
    1622:	25 91       	lpm	r18, Z+
    1624:	35 91       	lpm	r19, Z+
    1626:	45 91       	lpm	r20, Z+
    1628:	55 91       	lpm	r21, Z+
    162a:	a6 f3       	brts	.-24     	; 0x1614 <__fp_powser+0x16>
    162c:	ef 01       	movw	r28, r30
    162e:	0e 94 5b 08 	call	0x10b6	; 0x10b6 <__addsf3x>
    1632:	fe 01       	movw	r30, r28
    1634:	97 01       	movw	r18, r14
    1636:	a8 01       	movw	r20, r16
    1638:	da 94       	dec	r13
    163a:	69 f7       	brne	.-38     	; 0x1616 <__fp_powser+0x18>
    163c:	df 90       	pop	r13
    163e:	ef 90       	pop	r14
    1640:	ff 90       	pop	r15
    1642:	0f 91       	pop	r16
    1644:	1f 91       	pop	r17
    1646:	cf 91       	pop	r28
    1648:	df 91       	pop	r29
    164a:	08 95       	ret

0000164c <inverse>:
    164c:	9b 01       	movw	r18, r22
    164e:	ac 01       	movw	r20, r24
    1650:	60 e0       	ldi	r22, 0x00	; 0
    1652:	70 e0       	ldi	r23, 0x00	; 0
    1654:	80 e8       	ldi	r24, 0x80	; 128
    1656:	9f e3       	ldi	r25, 0x3F	; 63
    1658:	0c 94 b5 08 	jmp	0x116a	; 0x116a <__divsf3>
    165c:	0c 94 b7 09 	jmp	0x136e	; 0x136e <__fp_inf>
    1660:	0c 94 ec 0b 	jmp	0x17d8	; 0x17d8 <__fp_mpack>

00001664 <ldexp>:
    1664:	0e 94 e7 09 	call	0x13ce	; 0x13ce <__fp_splitA>
    1668:	d8 f3       	brcs	.-10     	; 0x1660 <inverse+0x14>
    166a:	99 23       	and	r25, r25
    166c:	c9 f3       	breq	.-14     	; 0x1660 <inverse+0x14>
    166e:	94 0f       	add	r25, r20
    1670:	51 1d       	adc	r21, r1
    1672:	a3 f3       	brvs	.-24     	; 0x165c <inverse+0x10>
    1674:	91 50       	subi	r25, 0x01	; 1
    1676:	50 40       	sbci	r21, 0x00	; 0
    1678:	94 f0       	brlt	.+36     	; 0x169e <ldexp+0x3a>
    167a:	59 f0       	breq	.+22     	; 0x1692 <ldexp+0x2e>
    167c:	88 23       	and	r24, r24
    167e:	32 f0       	brmi	.+12     	; 0x168c <ldexp+0x28>
    1680:	66 0f       	add	r22, r22
    1682:	77 1f       	adc	r23, r23
    1684:	88 1f       	adc	r24, r24
    1686:	91 50       	subi	r25, 0x01	; 1
    1688:	50 40       	sbci	r21, 0x00	; 0
    168a:	c1 f7       	brne	.-16     	; 0x167c <ldexp+0x18>
    168c:	9e 3f       	cpi	r25, 0xFE	; 254
    168e:	51 05       	cpc	r21, r1
    1690:	2c f7       	brge	.-54     	; 0x165c <inverse+0x10>
    1692:	88 0f       	add	r24, r24
    1694:	91 1d       	adc	r25, r1
    1696:	96 95       	lsr	r25
    1698:	87 95       	ror	r24
    169a:	97 f9       	bld	r25, 7
    169c:	08 95       	ret
    169e:	5f 3f       	cpi	r21, 0xFF	; 255
    16a0:	ac f0       	brlt	.+42     	; 0x16cc <ldexp+0x68>
    16a2:	98 3e       	cpi	r25, 0xE8	; 232
    16a4:	9c f0       	brlt	.+38     	; 0x16cc <ldexp+0x68>
    16a6:	bb 27       	eor	r27, r27
    16a8:	86 95       	lsr	r24
    16aa:	77 95       	ror	r23
    16ac:	67 95       	ror	r22
    16ae:	b7 95       	ror	r27
    16b0:	08 f4       	brcc	.+2      	; 0x16b4 <ldexp+0x50>
    16b2:	b1 60       	ori	r27, 0x01	; 1
    16b4:	93 95       	inc	r25
    16b6:	c1 f7       	brne	.-16     	; 0x16a8 <ldexp+0x44>
    16b8:	bb 0f       	add	r27, r27
    16ba:	58 f7       	brcc	.-42     	; 0x1692 <ldexp+0x2e>
    16bc:	11 f4       	brne	.+4      	; 0x16c2 <ldexp+0x5e>
    16be:	60 ff       	sbrs	r22, 0
    16c0:	e8 cf       	rjmp	.-48     	; 0x1692 <ldexp+0x2e>
    16c2:	6f 5f       	subi	r22, 0xFF	; 255
    16c4:	7f 4f       	sbci	r23, 0xFF	; 255
    16c6:	8f 4f       	sbci	r24, 0xFF	; 255
    16c8:	9f 4f       	sbci	r25, 0xFF	; 255
    16ca:	e3 cf       	rjmp	.-58     	; 0x1692 <ldexp+0x2e>
    16cc:	0c 94 02 0a 	jmp	0x1404	; 0x1404 <__fp_szero>
    16d0:	16 f0       	brts	.+4      	; 0x16d6 <ldexp+0x72>
    16d2:	0c 94 ec 0b 	jmp	0x17d8	; 0x17d8 <__fp_mpack>
    16d6:	0c 94 bd 09 	jmp	0x137a	; 0x137a <__fp_nan>
    16da:	68 94       	set
    16dc:	0c 94 b7 09 	jmp	0x136e	; 0x136e <__fp_inf>

000016e0 <log>:
    16e0:	0e 94 e7 09 	call	0x13ce	; 0x13ce <__fp_splitA>
    16e4:	a8 f3       	brcs	.-22     	; 0x16d0 <ldexp+0x6c>
    16e6:	99 23       	and	r25, r25
    16e8:	c1 f3       	breq	.-16     	; 0x16da <ldexp+0x76>
    16ea:	ae f3       	brts	.-22     	; 0x16d6 <ldexp+0x72>
    16ec:	df 93       	push	r29
    16ee:	cf 93       	push	r28
    16f0:	1f 93       	push	r17
    16f2:	0f 93       	push	r16
    16f4:	ff 92       	push	r15
    16f6:	c9 2f       	mov	r28, r25
    16f8:	dd 27       	eor	r29, r29
    16fa:	88 23       	and	r24, r24
    16fc:	2a f0       	brmi	.+10     	; 0x1708 <log+0x28>
    16fe:	21 97       	sbiw	r28, 0x01	; 1
    1700:	66 0f       	add	r22, r22
    1702:	77 1f       	adc	r23, r23
    1704:	88 1f       	adc	r24, r24
    1706:	da f7       	brpl	.-10     	; 0x16fe <log+0x1e>
    1708:	20 e0       	ldi	r18, 0x00	; 0
    170a:	30 e0       	ldi	r19, 0x00	; 0
    170c:	40 e8       	ldi	r20, 0x80	; 128
    170e:	5f eb       	ldi	r21, 0xBF	; 191
    1710:	9f e3       	ldi	r25, 0x3F	; 63
    1712:	88 39       	cpi	r24, 0x98	; 152
    1714:	20 f0       	brcs	.+8      	; 0x171e <log+0x3e>
    1716:	80 3e       	cpi	r24, 0xE0	; 224
    1718:	38 f0       	brcs	.+14     	; 0x1728 <log+0x48>
    171a:	21 96       	adiw	r28, 0x01	; 1
    171c:	8f 77       	andi	r24, 0x7F	; 127
    171e:	0e 94 44 08 	call	0x1088	; 0x1088 <__addsf3>
    1722:	ea e8       	ldi	r30, 0x8A	; 138
    1724:	f0 e0       	ldi	r31, 0x00	; 0
    1726:	04 c0       	rjmp	.+8      	; 0x1730 <log+0x50>
    1728:	0e 94 44 08 	call	0x1088	; 0x1088 <__addsf3>
    172c:	e7 eb       	ldi	r30, 0xB7	; 183
    172e:	f0 e0       	ldi	r31, 0x00	; 0
    1730:	0e 94 ff 0a 	call	0x15fe	; 0x15fe <__fp_powser>
    1734:	8b 01       	movw	r16, r22
    1736:	be 01       	movw	r22, r28
    1738:	ec 01       	movw	r28, r24
    173a:	fb 2e       	mov	r15, r27
    173c:	6f 57       	subi	r22, 0x7F	; 127
    173e:	71 09       	sbc	r23, r1
    1740:	75 95       	asr	r23
    1742:	77 1f       	adc	r23, r23
    1744:	88 0b       	sbc	r24, r24
    1746:	99 0b       	sbc	r25, r25
    1748:	0e 94 58 09 	call	0x12b0	; 0x12b0 <__floatsisf>
    174c:	28 e1       	ldi	r18, 0x18	; 24
    174e:	32 e7       	ldi	r19, 0x72	; 114
    1750:	41 e3       	ldi	r20, 0x31	; 49
    1752:	5f e3       	ldi	r21, 0x3F	; 63
    1754:	0e 94 1b 0a 	call	0x1436	; 0x1436 <__mulsf3x>
    1758:	af 2d       	mov	r26, r15
    175a:	98 01       	movw	r18, r16
    175c:	ae 01       	movw	r20, r28
    175e:	ff 90       	pop	r15
    1760:	0f 91       	pop	r16
    1762:	1f 91       	pop	r17
    1764:	cf 91       	pop	r28
    1766:	df 91       	pop	r29
    1768:	0e 94 5b 08 	call	0x10b6	; 0x10b6 <__addsf3x>
    176c:	0c 94 ce 09 	jmp	0x139c	; 0x139c <__fp_round>

00001770 <modf>:
    1770:	fa 01       	movw	r30, r20
    1772:	dc 01       	movw	r26, r24
    1774:	aa 0f       	add	r26, r26
    1776:	bb 1f       	adc	r27, r27
    1778:	9b 01       	movw	r18, r22
    177a:	ac 01       	movw	r20, r24
    177c:	bf 57       	subi	r27, 0x7F	; 127
    177e:	28 f4       	brcc	.+10     	; 0x178a <modf+0x1a>
    1780:	22 27       	eor	r18, r18
    1782:	33 27       	eor	r19, r19
    1784:	44 27       	eor	r20, r20
    1786:	50 78       	andi	r21, 0x80	; 128
    1788:	20 c0       	rjmp	.+64     	; 0x17ca <modf+0x5a>
    178a:	b7 51       	subi	r27, 0x17	; 23
    178c:	90 f4       	brcc	.+36     	; 0x17b2 <modf+0x42>
    178e:	ab 2f       	mov	r26, r27
    1790:	00 24       	eor	r0, r0
    1792:	46 95       	lsr	r20
    1794:	37 95       	ror	r19
    1796:	27 95       	ror	r18
    1798:	01 1c       	adc	r0, r1
    179a:	a3 95       	inc	r26
    179c:	d2 f3       	brmi	.-12     	; 0x1792 <modf+0x22>
    179e:	00 20       	and	r0, r0
    17a0:	71 f0       	breq	.+28     	; 0x17be <modf+0x4e>
    17a2:	22 0f       	add	r18, r18
    17a4:	33 1f       	adc	r19, r19
    17a6:	44 1f       	adc	r20, r20
    17a8:	b3 95       	inc	r27
    17aa:	da f3       	brmi	.-10     	; 0x17a2 <modf+0x32>
    17ac:	0e d0       	rcall	.+28     	; 0x17ca <modf+0x5a>
    17ae:	0c 94 43 08 	jmp	0x1086	; 0x1086 <__subsf3>
    17b2:	61 30       	cpi	r22, 0x01	; 1
    17b4:	71 05       	cpc	r23, r1
    17b6:	a0 e8       	ldi	r26, 0x80	; 128
    17b8:	8a 07       	cpc	r24, r26
    17ba:	b9 46       	sbci	r27, 0x69	; 105
    17bc:	30 f4       	brcc	.+12     	; 0x17ca <modf+0x5a>
    17be:	9b 01       	movw	r18, r22
    17c0:	ac 01       	movw	r20, r24
    17c2:	66 27       	eor	r22, r22
    17c4:	77 27       	eor	r23, r23
    17c6:	88 27       	eor	r24, r24
    17c8:	90 78       	andi	r25, 0x80	; 128
    17ca:	30 96       	adiw	r30, 0x00	; 0
    17cc:	21 f0       	breq	.+8      	; 0x17d6 <modf+0x66>
    17ce:	20 83       	st	Z, r18
    17d0:	31 83       	std	Z+1, r19	; 0x01
    17d2:	42 83       	std	Z+2, r20	; 0x02
    17d4:	53 83       	std	Z+3, r21	; 0x03
    17d6:	08 95       	ret

000017d8 <__fp_mpack>:
    17d8:	9f 3f       	cpi	r25, 0xFF	; 255
    17da:	31 f0       	breq	.+12     	; 0x17e8 <__fp_mpack_finite+0xc>

000017dc <__fp_mpack_finite>:
    17dc:	91 50       	subi	r25, 0x01	; 1
    17de:	20 f4       	brcc	.+8      	; 0x17e8 <__fp_mpack_finite+0xc>
    17e0:	87 95       	ror	r24
    17e2:	77 95       	ror	r23
    17e4:	67 95       	ror	r22
    17e6:	b7 95       	ror	r27
    17e8:	88 0f       	add	r24, r24
    17ea:	91 1d       	adc	r25, r1
    17ec:	96 95       	lsr	r25
    17ee:	87 95       	ror	r24
    17f0:	97 f9       	bld	r25, 7
    17f2:	08 95       	ret

000017f4 <__divmodsi4>:
    17f4:	05 2e       	mov	r0, r21
    17f6:	97 fb       	bst	r25, 7
    17f8:	1e f4       	brtc	.+6      	; 0x1800 <__divmodsi4+0xc>
    17fa:	00 94       	com	r0
    17fc:	0e 94 11 0c 	call	0x1822	; 0x1822 <__negsi2>
    1800:	57 fd       	sbrc	r21, 7
    1802:	07 d0       	rcall	.+14     	; 0x1812 <__divmodsi4_neg2>
    1804:	0e 94 77 0c 	call	0x18ee	; 0x18ee <__udivmodsi4>
    1808:	07 fc       	sbrc	r0, 7
    180a:	03 d0       	rcall	.+6      	; 0x1812 <__divmodsi4_neg2>
    180c:	4e f4       	brtc	.+18     	; 0x1820 <__divmodsi4_exit>
    180e:	0c 94 11 0c 	jmp	0x1822	; 0x1822 <__negsi2>

00001812 <__divmodsi4_neg2>:
    1812:	50 95       	com	r21
    1814:	40 95       	com	r20
    1816:	30 95       	com	r19
    1818:	21 95       	neg	r18
    181a:	3f 4f       	sbci	r19, 0xFF	; 255
    181c:	4f 4f       	sbci	r20, 0xFF	; 255
    181e:	5f 4f       	sbci	r21, 0xFF	; 255

00001820 <__divmodsi4_exit>:
    1820:	08 95       	ret

00001822 <__negsi2>:
    1822:	90 95       	com	r25
    1824:	80 95       	com	r24
    1826:	70 95       	com	r23
    1828:	61 95       	neg	r22
    182a:	7f 4f       	sbci	r23, 0xFF	; 255
    182c:	8f 4f       	sbci	r24, 0xFF	; 255
    182e:	9f 4f       	sbci	r25, 0xFF	; 255
    1830:	08 95       	ret

00001832 <__tablejump2__>:
    1832:	ee 0f       	add	r30, r30
    1834:	ff 1f       	adc	r31, r31
    1836:	05 90       	lpm	r0, Z+
    1838:	f4 91       	lpm	r31, Z
    183a:	e0 2d       	mov	r30, r0
    183c:	09 94       	ijmp

0000183e <__umulhisi3>:
    183e:	a2 9f       	mul	r26, r18
    1840:	b0 01       	movw	r22, r0
    1842:	b3 9f       	mul	r27, r19
    1844:	c0 01       	movw	r24, r0
    1846:	a3 9f       	mul	r26, r19
    1848:	70 0d       	add	r23, r0
    184a:	81 1d       	adc	r24, r1
    184c:	11 24       	eor	r1, r1
    184e:	91 1d       	adc	r25, r1
    1850:	b2 9f       	mul	r27, r18
    1852:	70 0d       	add	r23, r0
    1854:	81 1d       	adc	r24, r1
    1856:	11 24       	eor	r1, r1
    1858:	91 1d       	adc	r25, r1
    185a:	08 95       	ret

0000185c <__umulsidi3>:
    185c:	e8 94       	clt

0000185e <__umulsidi3_helper>:
    185e:	df 93       	push	r29
    1860:	cf 93       	push	r28
    1862:	fc 01       	movw	r30, r24
    1864:	db 01       	movw	r26, r22
    1866:	0e 94 1f 0c 	call	0x183e	; 0x183e <__umulhisi3>
    186a:	7f 93       	push	r23
    186c:	6f 93       	push	r22
    186e:	e9 01       	movw	r28, r18
    1870:	9a 01       	movw	r18, r20
    1872:	ac 01       	movw	r20, r24
    1874:	bf 93       	push	r27
    1876:	af 93       	push	r26
    1878:	3f 93       	push	r19
    187a:	2f 93       	push	r18
    187c:	df 01       	movw	r26, r30
    187e:	0e 94 1f 0c 	call	0x183e	; 0x183e <__umulhisi3>
    1882:	26 f4       	brtc	.+8      	; 0x188c <__umulsidi3_helper+0x2e>
    1884:	6c 1b       	sub	r22, r28
    1886:	7d 0b       	sbc	r23, r29
    1888:	82 0b       	sbc	r24, r18
    188a:	93 0b       	sbc	r25, r19
    188c:	9e 01       	movw	r18, r28
    188e:	eb 01       	movw	r28, r22
    1890:	fc 01       	movw	r30, r24
    1892:	0e 94 99 0c 	call	0x1932	; 0x1932 <__muldi3_6>
    1896:	af 91       	pop	r26
    1898:	bf 91       	pop	r27
    189a:	2f 91       	pop	r18
    189c:	3f 91       	pop	r19
    189e:	0e 94 99 0c 	call	0x1932	; 0x1932 <__muldi3_6>
    18a2:	be 01       	movw	r22, r28
    18a4:	cf 01       	movw	r24, r30
    18a6:	f9 01       	movw	r30, r18
    18a8:	2f 91       	pop	r18
    18aa:	3f 91       	pop	r19
    18ac:	cf 91       	pop	r28
    18ae:	df 91       	pop	r29
    18b0:	08 95       	ret

000018b2 <__ashrdi3>:
    18b2:	97 fb       	bst	r25, 7
    18b4:	10 f8       	bld	r1, 0

000018b6 <__lshrdi3>:
    18b6:	16 94       	lsr	r1
    18b8:	00 08       	sbc	r0, r0
    18ba:	0f 93       	push	r16
    18bc:	08 30       	cpi	r16, 0x08	; 8
    18be:	98 f0       	brcs	.+38     	; 0x18e6 <__lshrdi3+0x30>
    18c0:	08 50       	subi	r16, 0x08	; 8
    18c2:	23 2f       	mov	r18, r19
    18c4:	34 2f       	mov	r19, r20
    18c6:	45 2f       	mov	r20, r21
    18c8:	56 2f       	mov	r21, r22
    18ca:	67 2f       	mov	r22, r23
    18cc:	78 2f       	mov	r23, r24
    18ce:	89 2f       	mov	r24, r25
    18d0:	90 2d       	mov	r25, r0
    18d2:	f4 cf       	rjmp	.-24     	; 0x18bc <__lshrdi3+0x6>
    18d4:	05 94       	asr	r0
    18d6:	97 95       	ror	r25
    18d8:	87 95       	ror	r24
    18da:	77 95       	ror	r23
    18dc:	67 95       	ror	r22
    18de:	57 95       	ror	r21
    18e0:	47 95       	ror	r20
    18e2:	37 95       	ror	r19
    18e4:	27 95       	ror	r18
    18e6:	0a 95       	dec	r16
    18e8:	aa f7       	brpl	.-22     	; 0x18d4 <__lshrdi3+0x1e>
    18ea:	0f 91       	pop	r16
    18ec:	08 95       	ret

000018ee <__udivmodsi4>:
    18ee:	a1 e2       	ldi	r26, 0x21	; 33
    18f0:	1a 2e       	mov	r1, r26
    18f2:	aa 1b       	sub	r26, r26
    18f4:	bb 1b       	sub	r27, r27
    18f6:	fd 01       	movw	r30, r26
    18f8:	0d c0       	rjmp	.+26     	; 0x1914 <__udivmodsi4_ep>

000018fa <__udivmodsi4_loop>:
    18fa:	aa 1f       	adc	r26, r26
    18fc:	bb 1f       	adc	r27, r27
    18fe:	ee 1f       	adc	r30, r30
    1900:	ff 1f       	adc	r31, r31
    1902:	a2 17       	cp	r26, r18
    1904:	b3 07       	cpc	r27, r19
    1906:	e4 07       	cpc	r30, r20
    1908:	f5 07       	cpc	r31, r21
    190a:	20 f0       	brcs	.+8      	; 0x1914 <__udivmodsi4_ep>
    190c:	a2 1b       	sub	r26, r18
    190e:	b3 0b       	sbc	r27, r19
    1910:	e4 0b       	sbc	r30, r20
    1912:	f5 0b       	sbc	r31, r21

00001914 <__udivmodsi4_ep>:
    1914:	66 1f       	adc	r22, r22
    1916:	77 1f       	adc	r23, r23
    1918:	88 1f       	adc	r24, r24
    191a:	99 1f       	adc	r25, r25
    191c:	1a 94       	dec	r1
    191e:	69 f7       	brne	.-38     	; 0x18fa <__udivmodsi4_loop>
    1920:	60 95       	com	r22
    1922:	70 95       	com	r23
    1924:	80 95       	com	r24
    1926:	90 95       	com	r25
    1928:	9b 01       	movw	r18, r22
    192a:	ac 01       	movw	r20, r24
    192c:	bd 01       	movw	r22, r26
    192e:	cf 01       	movw	r24, r30
    1930:	08 95       	ret

00001932 <__muldi3_6>:
    1932:	0e 94 1f 0c 	call	0x183e	; 0x183e <__umulhisi3>
    1936:	46 0f       	add	r20, r22
    1938:	57 1f       	adc	r21, r23
    193a:	c8 1f       	adc	r28, r24
    193c:	d9 1f       	adc	r29, r25
    193e:	08 f4       	brcc	.+2      	; 0x1942 <__muldi3_6+0x10>
    1940:	31 96       	adiw	r30, 0x01	; 1
    1942:	08 95       	ret

00001944 <_exit>:
    1944:	f8 94       	cli

00001946 <__stop_program>:
    1946:	ff cf       	rjmp	.-2      	; 0x1946 <__stop_program>
